(lp1
(dp2
S'guess'
p3
(lp4
F8.8777674945754885
aI1
aI0
aF0.71161174171439423
aF2.0974673759990488
aI0
aF3.9991207586010917
aF3.1767190917808237
aF3.1877202949404921
aF3.304339877911703
aF6.6774742513149281
aF2.3966687780108691
asS'guess_score'
p5
cnumpy.core.multiarray
scalar
p6
(cnumpy
dtype
p7
(S'f8'
I0
I1
tRp8
(I3
S'<'
NNNI-1
I-1
I0
tbS'\xee;\xbb+\xc1\xc3\xe8?'
tRp9
sS'target'
p10
(lp11
F8.734335878360497
aI1
aI1
aF2.5370397895686305
aF1.3118309632487677
aF5.0524543130474253
aF0.02923165994624365
aF1.9708317042553136
aF0.34239680767074199
aF3.8859466411225783
aF5.7799561596624578
aF1.2068508701786729
asS'num_samples'
p12
I500
sa(dp13
g3
(lp14
F8.0804175845744179
aI0
aI0
aF5.6666650000000001
aF5.3255659587621773
aF6.7475154287839194
aF3.5306437325365594
aF3.7652448224952093
aF0.96336719856312325
aF4.1539537591268241
aF0.35446250407764657
aF3.764806508260806
asg5
g6
(g8
S'G\xb6\x07\x82UE\x14@'
tRp15
sg10
(lp16
F9.6924606364047232
aI2
aI2
aF5.5066803522070362
aF2.9375716078970697
aF0.84469614602366316
aF2.6931428074147972
aF2.022020759527666
aF2.6356072108326023
aF0.93430902795017823
aF6.3988943363826483
aF8.2084903258539033
asg12
I500
sa(dp17
g3
(lp18
F8.4888337773369056
aF1.3809172991187049
aI1
aF4.1329766149938321
aF1.6862911921825166
aF6.4007860898057132
aF1.9801637698731509
aF1.6323027960667305
aF1.7754402779992482
aF1.0485836111377527
aF5.3022788979916333
aF1.7008969305777839
asg5
g6
(g8
S'J\x89q\x07\xc7\xac\n@'
tRp19
sg10
(lp20
F9.087742419857646
aI2
aI2
aF0.65854019330372382
aF4.1655092141097851
aF1.437745811719827
aF3.4213348302986542
aF3.7012498161020222
aF1.980183552945098
aF3.0431455909796816
aF0.58813262632985663
aF4.7583518659200461
asg12
I500
sa(dp21
g3
(lp22
F10.099966551700403
aF1.7287046427112385
aI2
aF3.3319387414148358
aF7.3848610231764296
aF6.1856017324991814
aF0.10300095865160887
aF7.4801127531816283
aF6.0126920630188394
aF3.5921739833550088
aF4.5872661777865069
aF3.639731419009653
asg5
g6
(g8
S'\x10\x96\xcfY;)\x03@'
tRp23
sg10
(lp24
F9.8105976100506638
aI1
aI1
aF1.9213894123647326
aF6.0946312731012684
aF2.2784496608859905
aF4.4924301137899727
aF4.5747383031404398
aF5.8592004467886163
aF3.5716511346099193
aF8.4397401346552297
aF6.9719349771135226
asg12
I500
sa(dp25
g3
(lp26
F9.5981564545429787
aI0
aI1
aF2.9889285759737017
aF3.1174342299824094
aF2.0328622431997618
aF4.2154274263066807
aF1.285483417355072
aF2.2801494664703421
aF3.9020898630652754
aF6.0072203087919398
aF3.4102044479598645
asg5
g6
(g8
S'\xd2K\x02\x82\xec\x86\xe3?'
tRp27
sg10
(lp28
F10.153225064602193
aI1
aI1
aF4.3599578083364294
aF4.9877068425075004
aF1.1842641914414016
aF3.9342632330626355
aF0.74455988452653088
aF2.2533704143083728
aF1.8589589595893408
aF3.2373021100970423
aF4.6075331177507532
asg12
I500
sa(dp29
g3
(lp30
F11.104026025430123
aF2.5641134887544501
aI0
aF2.9062985508783203
aF5.0670935597930233
aF0.32989889730139654
aF0.9656577106432005
aF6.952616268620198
aF3.5148594862478442
aI0
aF4.1629463199526908
aF3.8273194338585559
asg5
g6
(g8
S'\x19#\xb5\xeb\x1e\x0b\xfc?'
tRp31
sg10
(lp32
F10.676508933698031
aI2
aI2
aF3.4643165261660909
aF5.0991664028408863
aF1.4590246007755985
aF2.2092274971002848
aF3.6498371471517483
aF6.4055910416173516
aF1.211564970857463
aF5.5048659770855419
aF0.42069205765070505
asg12
I500
sa(dp33
g3
(lp34
F9.2320058655413781
aI0
aI0
aF1.1475398782378567
aF4.8006680415871008
aF4.8004606260022715
aF4.8135874920758308
aF8.8204170485535123
aF7.5189064932253409
aI0
aF0.97468915977179149
aF0.74466338907023288
asg5
g6
(g8
S'{\xd5\x1f\xcb(\x92\xfb?'
tRp35
sg10
(lp36
F9.1569800819382898
aI0
aI0
aF0.57443767533994916
aF4.7927250978971454
aF6.4255304475980122
aF4.507158147721273
aF8.7809097999917185
aF7.334955675009553
aF0.46822497233532606
aF1.3434333934907636
aF0.14098919566715806
asg12
I500
sa(dp37
g3
(lp38
F10.822005785529281
aI0
aI0
aF5.6666650000000001
aF3.183697351415792
aF9
aF4.0777433872488205
aF1.9129602689088467
aF2.4377806110451683
aF4.65495185820998
aF2.521266788079946
aF0.18894456930500581
asg5
g6
(g8
S'd\xebw\x9c\xda\xf8\xed?'
tRp39
sg10
(lp40
F10.687019462290644
aI0
aI0
aF5.4086384316303731
aF3.3372991534982512
aF8.112813330625297
aF5.4852865289629529
aF0.12675453966960626
aF6.4174334306977645
aF2.3753425874036385
aF1.9877525488671519
aF2.6190456828742299
asg12
I500
sa(dp41
g3
(lp42
F10.223245947787825
aF1.4819902799142097
aI1
aF1.6745645636863862
aF5.2910013759019519
aF7.4248863006429353
aF2.3822444971419872
aF1.9515103415602215
aF6.5426594898439276
aF4.7883324260574307
aF6.4741179374118678
aF7.0281077001331935
asg5
g6
(g8
S'\xe5F\xe8 g\xc4\x06@'
tRp43
sg10
(lp44
F10.267396817629351
aI2
aI2
aF2.7627142426998028
aF5.202841450575181
aF6.5291946394321565
aF4.3882244593307105
aF5.5440049558539934
aF5.3633297565433198
aF0.59536850707226419
aF1.9123940853865016
aF8.7573129481606635
asg12
I500
sa(dp45
g3
(lp46
F10.354728438226813
aF1.2543411511076128
aI0
aF2.0970155946415927
aF6.8993198378061811
aF1.9124700362394833
aF3.135832070655546
aF6.0688297993672862
aF8.7124947170898679
aF0.91487983916483284
aF5.1073214753032454
aF9
asg5
g6
(g8
S'\xb2c\xbd\x1d\xcb\xd2\x0b@'
tRp47
sg10
(lp48
F11.070555305881681
aI2
aI2
aF1.2761443360968989
aF5.9728443765452566
aF5.7441618151767493
aF4.2849375185703602
aF6.1293932982916681
aF4.5724636980228031
aF0.28155566411715638
aF7.3761858275135594
aF4.8403833956044338
asg12
I500
sa(dp49
g3
(lp50
F8.8621791285624507
aI0
aI2
aF0.82997998023662911
aF8.7032247093233153
aF5.5620487641365148
aF2.8759719509211599
aF7.9749101648664107
aF4.0065867145393952
aF5.5894269926311404
aF7.4599337032074837
aF3.9159733076298435
asg5
g6
(g8
S'KYX?\x14\xf0\x0c@'
tRp51
sg10
(lp52
F9.3268036356416157
aI0
aI0
aF4.1311003977739897
aF7.4812158723833093
aF7.2261327309024885
aF4.7646889675977233
aF7.5812093080728529
aF2.6737779859925128
aF1.7187074949352725
aF8.1360350027448654
aF3.3200772302641721
asg12
I500
sa(dp53
g3
(lp54
F9.2796416426578308
aF0.88913465310545137
aI2
aF1.0983985947567658
aF0.48509223735775664
aF4.8779473575026069
aF0.38392373211542874
aF3.8303782016910373
aF9
aF5.4379613263139985
aF6.2083472175006502
aF8.4272995086294706
asg5
g6
(g8
S'\xa7\x95\x1f\xbb\xe5\xaf\xf9?'
tRp55
sg10
(lp56
F9.5775570411905768
aI2
aI2
aF1.4001488144373666
aF1.2947457884428399
aF5.5759982005280095
aF0.3015515387322879
aF0.20112827941236433
aF6.6302848993924091
aF5.1077238482091811
aF6.5940542245805966
aF6.9042687210829472
asg12
I500
sa(dp57
g3
(lp58
F11.308339523859216
aF0.51592712393180729
aI1
aF1.6951469612153127
aF6.0140279514789379
aF1.6019568876791088
aF4.3558197313840958
aF3.3655439440518222
aF0.22137454696795061
aF2.4063360175327655
aF9
aF6.5450614376079042
asg5
g6
(g8
S'[\xe6\x7fMDm\xe5?'
tRp59
sg10
(lp60
F10.740467714255992
aI0
aI0
aF3.6866470569965286
aF3.3889160123110411
aF0.2245495289181817
aF2.4619229994867742
aF6.1126162814806762
aF1.2123085503439113
aF1.8455489775943397
aF8.2734958441066002
aF6.2868841935884667
asg12
I500
sa(dp61
g3
(lp62
F11.24148423114679
aF0.65308249460120493
aI2
aF1.7419970772089979
aF6.1082591795714025
aF6.0088001511029834
aF3.3938639662323355
aI0
aF4.1946294633383294
aF2.4202031958485071
aF3.8494981680780969
aF4.3349687322735857
asg5
g6
(g8
S'\xca_N>\xc3a\xfa?'
tRp63
sg10
(lp64
F10.619557927385396
aI0
aI0
aF3.9965565394376195
aF3.926048986131208
aF3.8574592981866989
aF2.913121879260081
aF0.23585109254227599
aF3.8910016932236084
aF0.0092137718127595098
aF6.4505206116857776
aF6.0864709183341903
asg12
I500
sa(dp65
g3
(lp66
F11.597728731554261
aF4.4119747447557582
aI2
aF3.548785286023274
aF5.696571984125665
aF4.6457145466176941
aF3.791107207219309
aF0.042503482395410942
aF4.7713904428371423
aF2.3776337814687549
aF0.68450528963458979
aF3.3699607115127814
asg5
g6
(g8
S'\xae\xdeu\xc1\xc3&\x05@'
tRp67
sg10
(lp68
F10.133315458071429
aI2
aI2
aF4.069068186821343
aF8.6385896959886033
aF7.5897145863485633
aF3.4273393189460748
aF0.84057742059489771
aF1.5971888939555288
aF2.8866833061866628
aF2.4427448724648491
aF5.2777913505183234
asg12
I500
sa(dp69
g3
(lp70
F10.216174387321752
aF2.2648577741375422
aI2
aF5.1486476008559885
aI0
aF6.3185854480225734
aF1.6671888874841818
aF1.9574870203534256
aF2.6422444326550236
aF0.23382858091398875
aF5.3952234771311343
aF3.1113972873858549
asg5
g6
(g8
S'\xecB\xedH\xb1O\xb0?'
tRp71
sg10
(lp72
F9.789874154357344
aI1
aI1
aF0.21081970674011474
aF1.4935296422363367
aF6.1646253963453423
aF0.17779877345544717
aF5.420809151396659
aF3.0950950160926372
aF3.142959405479318
aF1.2314652322574742
aF3.5368831899350495
asg12
I500
sa(dp73
g3
(lp74
F10.482370839381364
aF2.7316645025442172
aI1
aF0.97923318402278647
aF3.1609984902367478
aF8.6169213344814448
aF3.4679946427993622
aF7.2361586475298605
aF4.8662017652422165
aF4.1687685139471107
aF0.30478216244394624
aF4.3528623462561127
asg5
g6
(g8
S'\xd5\x15\x1c\x14\xb5\xb0\x0f@'
tRp75
sg10
(lp76
F9.9535999284119541
aI2
aI2
aF3.3801696409191457
aF3.6914915517616032
aF7.7444768616232711
aF3.8920223889992815
aF0.65217993717565925
aF4.2311005798332069
aF0.94548747226693053
aF7.0611815950402015
aF7.9154808047125655
asg12
I500
sa(dp77
g3
(lp78
F9.4288665366147555
aI1
aI1
aF3.068631955973637
aF3.1751237130625203
aF6.6503967477994284
aF1.5840074246327038
aF4.6372050500384772
aF2.6387404772491516
aF4.1937997557416322
aF5.7572716720024442
aF2.7090240154883016
asg5
g6
(g8
S'\xef\x94\x13\x8a\xb0Z\x04@'
tRp79
sg10
(lp80
F9.4654006486857263
aI1
aI1
aF2.9813865063728224
aF5.4932041760405959
aF6.7399853348423084
aF2.9492508707927065
aF4.3150630010618514
aF0.51607566512396352
aF3.6700406114257049
aF6.5925160083144316
aF6.0290938964063692
asg12
I500
sa(dp81
g3
(lp82
F10.893715157961823
aF0.42466390334370252
aI1
aF5.6666650000000001
aF3.419429916794563
aF0.26367533239354524
aF2.2451993234783365
aF5.0631828498900679
aF2.8931258068458945
aF2.6829065919347599
aF5.638458325402377
aF3.0358660356492524
asg5
g6
(g8
S'\xf2;\xd6\x808.\x06@'
tRp83
sg10
(lp84
F10.34415921014832
aI0
aI0
aF3.9793675883302204
aF4.8501543707646331
aF0.74035630176288658
aF5.1896408386313473
aF1.9470719980086604
aF3.7812915380102359
aF1.7759191273540653
aF6.006007447267967
aF4.7799549372668526
asg12
I500
sa(dp85
g3
(lp86
F11.540107267612838
aF4.0061265738326197
aI0
aI0
aF6.4177232171539265
aF1.3246761411373353
aF4.48967808924899
aF5.5534888212403271
aF1.4670619368517155
aF0.017825989914190821
aF3.0627714925673271
aF2.2422888328071746
asg5
g6
(g8
S'2\x84\xc5\xb2\xdb\xab\xfa?'
tRp87
sg10
(lp88
F10.391074012526438
aI2
aI2
aF4.2235289359012436
aF6.6106097805911288
aF1.3671271022591283
aF1.5807936009474663
aF2.6194020205129429
aF2.4008815240638013
aF0.50180570338845731
aF5.4152747674893114
aF0.090968042053635401
asg12
I500
sa(dp89
g3
(lp90
F10.975256362160248
aF1.9555774007201094
aI0
aF5.2777448437598675
aF4.2284801297741188
aF4.4941815681165265
aF0.98769156424816806
aF3.6381325445979762
aF8.7300870846058078
aF5.551887176768159
aF4.5468298794778423
aF1.50102650621009
asg5
g6
(g8
S'p\x7fY-\xb3\x08\xf6?'
tRp91
sg10
(lp92
F10.421851666529381
aI1
aI1
aF3.5991844949024965
aF4.336916245488263
aF3.8080470969809492
aF3.922990852228927
aF4.4588494170165616
aF4.4045036453718502
aF5.2106482532020042
aF3.5090465382052978
aF7.9602358132478246
asg12
I500
sa(dp93
g3
(lp94
F9.0378750345573309
aF0.040675383295956428
aI2
aF4.823461359871243
aF6.1799243649707902
aF0.77875046182244634
aF0.24539276622319919
aF2.3826935964952836
aF6.5751551551700178
aF3.3396498041513492
aF1.4400476313510673
aF1.7065059021746662
asg5
g6
(g8
S'\xe8\xff\xfb\xd1\xf68\xee?'
tRp95
sg10
(lp96
F8.9486458895637924
aI0
aI0
aF4.0322295857839512
aF1.5536768357668063
aF2.3384982362020055
aF2.0182694857441805
aF3.0056229897442903
aF2.2123215484912753
aF5.1084195969708848
aF7.370041154389626
aF1.7705365084292939
asg12
I500
sa(dp97
g3
(lp98
F9.9979665226565348
aF1.5887458754670123
aI1
aF3.3979405138352328
aF0.59254130452658615
aF5.2558967756288393
aF2.1869480051423551
aF6.05236841006099
aF5.8946884024688107
aF0.19351325905223565
aI0
aF0.6193396249305676
asg5
g6
(g8
S'\xda*\xa7]k+\x02@'
tRp99
sg10
(lp100
F10.49055588538293
aI2
aI2
aF3.6861084252575513
aF0.44944020437049226
aF6.5871524249046107
aF0.31777339015417289
aF0.094033930071126037
aF0.6588313519666722
aF3.6403947378811305
aF5.9836373081264682
aF4.1508070824984875
asg12
I500
sa(dp101
g3
(lp102
F10.227246120512644
aF0.71699175365703027
aI1
aF1.4993017459290865
aF4.0007002495101087
aF1.4147242282754102
aF0.79390817097233168
aF8.016764192416705
aF3.1120134375054556
aF0.73720389108892692
aF2.0790713592639509
aF2.9577954595237963
asg5
g6
(g8
S'j\xbb_\x1b\x92\x0f\x12@'
tRp103
sg10
(lp104
F10.596990378088899
aI1
aI1
aF1.4519523865542299
aF5.0045328243368994
aF0.24554972017876975
aF3.4711672609957689
aF8.3094510333640841
aF6.7360583482301477
aF2.7409609137937618
aF3.070222105126116
aF0.39746223049362372
asg12
I500
sa(dp105
g3
(lp106
F8.7001084558603168
aI0
aI1
aF0.31012008242060457
aF5.6842213836859719
aF9
aF1.323360579298458
aF7.2501920390277093
aF0.36744221019708434
aI0
aF4.3790249220436435
aF3.3883632350472501
asg5
g6
(g8
S'c\x17\xcfU\\\x1b\x10@'
tRp107
sg10
(lp108
F9.1903318773099905
aI1
aI1
aF1.4651458061491123
aF4.346373526348736
aF6.0648798885796502
aF0.39409578921056515
aF8.6491244054077789
aF4.0272133038480336
aF0.24655985468547489
aF6.1702332947093286
aF1.0447762932329199
asg12
I500
sa(dp109
g3
(lp110
F10.48163688141169
aF0.075648312582690669
aI1
aF5.6666650000000001
aF3.7954333435935244
aF0.81159329746502396
aF1.6320135694754088
aF9
aF2.6082800832384625
aF2.6725106000371719
aF5.1788868765731308
aF7.2047675137643497
asg5
g6
(g8
S'\x01\xb6b\xb8H\xb7\xc5?'
tRp111
sg10
(lp112
F10.502057922035368
aI0
aI0
aF1.7239082282262899
aF8.9392564063713973
aF2.4792502142625565
aF5.348272091956126
aF4.6399271970755045
aF2.7953024469532344
aF4.7137196416274012
aF3.3778482345223275
aF2.9394452350056093
asg12
I500
sa(dp113
g3
(lp114
F9.0640683471107408
aI0
aI1
aF4.059089307233176
aF0.64558531879699854
aF4.120810685997701
aF4.2326118458886475
aF3.9693138131705439
aF2.4647029524357498
aF5.6666650000000001
aF2.3301364665491353
aF2.0641297459989039
asg5
g6
(g8
S'\xe1X\x12\xe6Hz\x05@'
tRp115
sg10
(lp116
F9.8021033581356267
aI1
aI1
aF5.5457939232760056
aF2.8942539109491556
aF1.1129254432610327
aF2.871811783549143
aF4.0990658098551425
aF4.7753418109870278
aF5.420125256618177
aF0.43163286181713423
aF3.7651065289519279
asg12
I500
sa(dp117
g3
(lp118
F10.853764909297846
aF1.4200858774271663
aI2
aF4.3320663421997043
aF5.5174260498805339
aF3.5908346816269026
aF3.9459304848517252
aF5.2916016387895848
aF6.2744378743181484
aI0
aF3.2418901319585691
aF6.9228747775457045
asg5
g6
(g8
S'D\x990\xd3q|\xfe?'
tRp119
sg10
(lp120
F10.413546278127503
aI1
aI1
aF4.3895872844045067
aF6.0533588073379407
aF4.1173244507917026
aF1.4920177144270341
aF3.1959394053364996
aF5.7387074767618245
aF0.1664369700229322
aF3.3877433230283249
aF8.9976567297223315
asg12
I500
sa(dp121
g3
(lp122
F10.189580541115191
aF0.72773877616008109
aI1
aF3.7242919734952737
aF0.33744066785178717
aF1.2833389766455168
aF1.9107662138630432
aF2.1398312746270038
aF2.9896822946335151
aF0.60261997302144632
aF3.638144952336293
aF9
asg5
g6
(g8
S'&\xe1\x81q\xd3\x07\xf6?'
tRp123
sg10
(lp124
F9.8016571203674179
aI0
aI0
aF0.79084761526182479
aF2.469128067042099
aF3.7199074961388918
aF2.791411920510007
aF1.5812241073732327
aF8.0067504303487098
aF3.6668325829734396
aF0.43549183814577785
aF1.108377089499947
asg12
I500
sa(dp125
g3
(lp126
F9.1672792409342421
aF1.3124838869267692
aI0
aF2.2387491088193396
aF8.7904202824755497
aF4.237109021229803
aF3.415643806953963
aF4.3786151724819771
aI0
aF2.4235846460446009
aF5.1330826230955884
aF8.3558505660019282
asg5
g6
(g8
S'\x0e.\xf2\xc3\xcd\xfc\xf2?'
tRp127
sg10
(lp128
F8.9839193524049428
aI1
aI1
aF3.7723760145708374
aF3.8257229417874208
aF0.79781940446104072
aF2.6003983162084903
aF8.6006477900139231
aF5.3513351332482895
aF0.046542377616623824
aF6.9353808552551373
aF4.2989057452655066
asg12
I500
sa(dp129
g3
(lp130
F10.124423250668089
aF2.2706969214904382
aI1
aF1.7378554078133592
aF6.387605446406738
aF1.6578238431874011
aF0.061788774787106426
aF2.1837249771444851
aF8.319836511916133
aF4.0918466359492234
aF0.70043616539893438
aF2.6920577568830355
asg5
g6
(g8
S'H\x08n\x00\x0f\x10\x1f@'
tRp131
sg10
(lp132
F9.7666224045042771
aI2
aI2
aF0.97137456035098024
aF7.0420980210732909
aF2.7524438384701959
aF1.6581722474217575
aF0.19611147365107395
aF5.8934248038072692
aF4.0548753177643828
aF2.0057392841807635
aF1.6618036641433833
asg12
I500
sa(dp133
g3
(lp134
F8.2903951017278139
aI0
aI0
aF0.77735586545648183
aF7.1181249663423269
aF5.3467192484841393
aF2.6353363746255476
aF2.1312043509760317
aF3.6715699525109784
aF4.9505282093401934
aF9
aF5.56918783771264
asg5
g6
(g8
S'\xd1\xc8\xfb0\x8ao\x14@'
tRp135
sg10
(lp136
F9.2574165014747578
aI2
aI2
aF3.2564732148410758
aF2.8467263999459687
aF2.5092762811215548
aF0.57772647850062975
aF7.3261214196478797
aF5.6966030221764665
aF5.5188633340194038
aF8.7601479801451188
aF4.3859965572615049
asg12
I500
sa(dp137
g3
(lp138
F11.444831322687062
aF0.35461814592209429
aI0
aF5.5587009800226213
aF2.0235610385081819
aF1.4217670981161481
aF2.3178686029514015
aF7.9801166798892176
aF8.3391823706300769
aF0.21292615464897149
aF7.6762940150573815
aF2.083478483727458
asg5
g6
(g8
S"q'0\x19S\xd7\xd7?"
tRp139
sg10
(lp140
F11.055659774268667
aI0
aI0
aF5.2278582451353381
aF2.0539256073564007
aF1.5902612204892632
aF0.50651612443747307
aF7.4786319159982542
aF1.5772564643047366
aF3.2795572413555325
aF8.3147302471176676
aF7.275200420272717
asg12
I500
sa(dp141
g3
(lp142
F9.1200017867798362
aF0.33187319792022757
aI2
aF1.8318402548570816
aF7.7541686500294222
aF6.3129206212734497
aI0
aF6.9723823280346462
aF7.6639730114317484
aF2.3341916479356204
aF4.8567239724433025
aF3.6628177053939046
asg5
g6
(g8
S'\xc73P=\xd1\xe9\xed?'
tRp143
sg10
(lp144
F9.3646393918173274
aI1
aI1
aF0.040410366295325253
aF7.9718608270995031
aF7.4223076879622054
aF2.5198441105627856
aF5.1497352050610132
aF4.5308695215711055
aF1.3441421190735279
aF6.2632210537977402
aF6.0007223867709705
asg12
I500
sa(dp145
g3
(lp146
F11.017520237181966
aF2.5752526357696452
aI0
aF2.12102838277842
aF3.5819924384970081
aF1.9478927127602776
aF1.6947269660320348
aF4.0254001827278199
aF4.2974990568911409
aF4.7757056489176843
aF8.1108267201314099
aF2.0263056348293298
asg5
g6
(g8
S'$.\x985\x81`\x19@'
tRp147
sg10
(lp148
F10.841089021330676
aI2
aI2
aF4.7949203996011507
aF8.775626875085667
aF2.9049543085846983
aF2.2373845264959571
aF4.0270777706960583
aF1.5465465563624097
aF1.4872959042850979
aF3.2723779946731306
aF8.2528066651580811
asg12
I500
sa(dp149
g3
(lp150
F10.743724762997649
aF0.80188222393493069
aI0
aF2.175485898799677
aF9
aF1.1988156994768011
aF0.15715152273298194
aF3.2328124841521708
aF4.2515764024139742
aF0.22693415388963195
aF6.4742136183420858
aF1.0505281177372867
asg5
g6
(g8
S'\xf1\xbe\xf6\x8f\xe7\x10\xf4?'
tRp151
sg10
(lp152
F10.096172244567084
aI0
aI0
aF2.0300978574397992
aF8.376228816841417
aF0.12057334545463683
aF0.72344856590663553
aF4.9604626988537701
aF0.65130622146439987
aF1.9009989360662867
aF3.0703637973745517
aF8.5187822696432054
asg12
I500
sa(dp153
g3
(lp154
F11.108969877642105
aI0
aI1
aF4.1256496549680435
aI0
aF3.5985618499903507
aF0.44493469198354096
aF0.68005493997585609
aF3.9466619810342141
aF3.257532621199724
aF1.2461225247048819
aF1.4036989002356419
asg5
g6
(g8
S'Ky\x97\xc4\xad\xf3\x11@'
tRp155
sg10
(lp156
F10.851018067486631
aI0
aI0
aF3.6063891538532848
aF0.50769745893478246
aF0.76588355429350896
aF2.575803618428238
aF2.8867901163877794
aF3.1186235808414962
aF0.17484981305238517
aF0.0026607206452589072
aF6.7572406603915987
asg12
I500
sa(dp157
g3
(lp158
F9.1487578844614958
aF1.4841345551944964
aI2
aF5.6666650000000001
aF1.8731440008047613
aF0.61854606536223034
aI0
aF0.69263745999489512
aF4.5561719457297869
aF5.6666650000000001
aF1.8310515493732133
aF0.75855104882228985
asg5
g6
(g8
S'\xe8\x8f\x9f\xb5LD\x17@'
tRp159
sg10
(lp160
F8.9819809394958181
aI2
aI2
aF4.2850246373759004
aF2.6606139659303212
aF6.3976483872307721
aF0.75940323536513421
aF0.75306110908986035
aF8.5177605035716049
aF1.3083558890576217
aF0.11121069299348374
aF4.2054735756426096
asg12
I500
sa(dp161
g3
(lp162
F10.607233939160443
aI0
aI0
aF2.3372050772060557
aF3.8767752167814926
aF5.9658459964229289
aF2.220999248664004
aF8.0483301208594007
aF7.091817557837155
aF5.3507919186266726
aF7.0874361067933282
aF1.3263074416051999
asg5
g6
(g8
S'r\xce\x83\xeb\xfbk\xf4?'
tRp163
sg10
(lp164
F10.665203526715665
aI0
aI0
aF2.2366957838781638
aF3.9845127147502919
aF7.2336763392181069
aF4.1743843438531441
aF6.4880851586810593
aF1.7888707585599035
aF4.7801022781263605
aF8.9238027093891983
aF5.4754698009079217
asg12
I500
sa(dp165
g3
(lp166
F10.995910886156988
aF1.1838951022257378
aI1
aF3.5365743714717937
aF4.757471480501601
aF9
aF2.8389043379925996
aF2.9374696125700819
aF6.3363206935914826
aF5.2045595912045295
aF2.1849796789299338
aF5.7540516147775342
asg5
g6
(g8
S'\x83\xb9[\xc3\xee;\x05@'
tRp167
sg10
(lp168
F12.080143309340022
aI2
aI2
aF5.2174160880122171
aF4.7122427433540661
aF6.8060139006685327
aF2.871069031498847
aF1.9920861471498481
aF6.200882747027511
aF4.8406555019925923
aF2.5719950907607281
aF8.0405912190005413
asg12
I500
sa(dp169
g3
(lp170
F9.7728907176439002
aF2.3975000159396256
aI1
aF0.96591849480739556
aF1.4779723233184425
aF2.3107800479650411
aF3.8224469744995986
aF1.115427760727387
aF1.6274767633750962
aF2.907883108810005
aF6.3441973178288054
aF4.0325025131886907
asg5
g6
(g8
S'<\xfb\xf6\x01$u\x19@'
tRp171
sg10
(lp172
F9.1427211002334747
aI1
aI1
aF2.3795044784679917
aF6.8085748692526895
aF5.487469603934489
aF2.083750978112382
aF1.6751047428937555
aF7.7241335356468701
aF2.5173382417456533
aF1.8812537118812598
aF0.074556554295216348
asg12
I500
sa(dp173
g3
(lp174
F8.3626599179346925
aI0
aI0
aF4.8530555835102831
aF0.85469728934276423
aF7.0635098524606761
aF1.6919558576515072
aF0.36128351260690184
aF5.3840673950959239
aF3.1420774356808465
aF3.8516738053491322
aF3.3527411319290734
asg5
g6
(g8
S'\xb5\xc2\xa8x\x9b\x8c\x06@'
tRp175
sg10
(lp176
F10.121426573904122
aI2
aI2
aF2.753662709660138
aF4.5841301887964896
aF3.7396513321595783
aF3.3171355742700639
aF0.6101350906887768
aF4.3481559990588829
aF4.8264393088426178
aF0.21636013262800113
aF4.3182159876296273
asg12
I500
sa(dp177
g3
(lp178
F10.308838963217257
aF2.4572479344876079
aI2
aF4.4382778418212654
aF6.2668107052319888
aF3.8202681481160687
aF5.6529081792064728
aF8.2407649785098798
aF9
aF4.5966921402920082
aF5.4556249369133667
aF1.5610014391815208
asg5
g6
(g8
S'\x95u\xeaJY\xb7\xec?'
tRp179
sg10
(lp180
F9.8769288028441338
aI2
aI2
aF3.683065242924402
aF4.7726243783216233
aF7.1501903299822995
aF5.6466830757274975
aF8.6153605456085547
aF6.6181406660805253
aF4.3917136730673683
aF5.6083989283226492
aF2.4211975759883488
asg12
I500
sa(dp181
g3
(lp182
F8.972129736141385
aF2.3127836886021589
aI2
aF1.4234220348912636
aF4.1349056973228846
aF5.2774508204736001
aF1.5808592602531044
aF7.9584779440264661
aF2.2392917476503809
aF5.4394106862094409
aF0.83182810754090553
aF6.4625655340770436
asg5
g6
(g8
S'W\xee\\R<\xc6\xe5?'
tRp183
sg10
(lp184
F9.0772554214990517
aI2
aI2
aF1.080843336822064
aF8.5066071988803582
aF2.7644940156790607
aF1.6909381696281987
aF4.31801298501136
aF4.5193029794452348
aF5.4273076785900178
aF1.1934946036237983
aF7.0388131166665566
asg12
I500
sa(dp185
g3
(lp186
F10.127731926862664
aF1.8254081636005317
aI2
aI0
aF6.6935265475232715
aF1.3414085790160764
aF1.6224944298647577
aF3.5424149422731013
aF3.057102771918808
aF5.6666650000000001
aF0.12271414632295218
aF2.4147681209154404
asg5
g6
(g8
S'\xb1\xaa|\x8c 7\x1a@'
tRp187
sg10
(lp188
F9.1280266678455941
aI0
aI0
aF0.67983193599574532
aF1.1604957216355261
aF6.538754048126088
aF0.88680209175887292
aF6.2655013713352066
aF0.26875879925905344
aF4.5238389058768078
aF0.93670851634146846
aF2.9470318379415859
asg12
I500
sa(dp189
g3
(lp190
F10.442663805958462
aF0.29759757419439853
aI0
aF4.977151806948501
aF2.713463629977424
aF8.1053549236596698
aF4.6266153369701568
aF0.64146161988658779
aF6.6433020954317534
aF4.8479736489859686
aF2.1854717969541535
aF1.98220589882251
asg5
g6
(g8
S',\x08k[\x9c\x8b\xfb?'
tRp191
sg10
(lp192
F10.225557170681956
aI0
aI0
aF5.3331050235629913
aF2.714860986146713
aF6.4209710307526118
aF3.4921634612762262
aF0.64545882478111971
aF5.9178540954395125
aF4.3581677146257523
aF1.1022048076742752
aF6.0184383472067982
asg12
I500
sa(dp193
g3
(lp194
F10.887129539327303
aF2.9876801071764292
aI2
aF5.0232199076489294
aI0
aF1.8261983153079344
aF3.194659302037179
aF8.9899395305457954
aF2.8729113024704058
aF4.3362388699411198
aF6.2566871610603734
aF2.5160269249537661
asg5
g6
(g8
S'xS\x9dGs\x07\x0e@'
tRp195
sg10
(lp196
F10.547441880733757
aI2
aI2
aF5.0963409908310284
aF0.49535931407890288
aF1.5750161466053512
aF3.7013735068195039
aF8.3381548925963855
aF1.6212636019332765
aF3.1063224804569107
aF6.3131080344719752
aF6.0619992104420914
asg12
I500
sa(dp197
g3
(lp198
F10.883437348083556
aF1.2159060433528743
aI0
aF3.7596141760730588
aF3.1299456280952347
aF7.7254679590464974
aF5.6666650000000001
aF5.8220119571718767
aF2.7388752919678923
aF5.6666650000000001
aF2.1051507921188852
aF8.3663731528067693
asg5
g6
(g8
S'\xf6\x13P\xa0\nV\x0b@'
tRp199
sg10
(lp200
F9.8141967920638589
aI0
aI0
aF4.6724956359187253
aF3.4168532231614512
aF4.4451774852333825
aF4.6417189692595446
aF7.2469953363753259
aF6.3509170657108571
aF5.2940363385766318
aF3.1043332456075889
aF8.4961722422140085
asg12
I500
sa(dp201
g3
(lp202
F10.69140508023694
aI0
aI2
aF1.4764156128503914
aF0.81080645848690958
aF7.8408968853689984
aF4.842304809069951
aF5.7211012603349758
aF7.7636652673731614
aF0.31417181958822737
aF9
aF9
asg5
g6
(g8
S'\xe0\xd4\xc0\xaa\x8cc\x01@'
tRp203
sg10
(lp204
F10.726475726954272
aI0
aI0
aF1.8575223913888073
aF8.8101124563957445
aF7.4812557488784437
aF4.5010651312145011
aF4.3004423560339085
aF8.9870745794081301
aF1.1692934447384211
aF1.1054936168072347
aF8.0997946927050464
asg12
I500
sa(dp205
g3
(lp206
F10.679232535832433
aF1.8046892032228827
aI0
aI0
aF3.1640527088660049
aF1.2861297205912439
aF4.4816703225033789
aF8.4543002871398834
aF2.505946381134994
aF1.931155385872068
aF2.7748813615673336
aF4.7526766700452425
asg5
g6
(g8
S';\xd1\x8ee\xb2\xf7\xfc?'
tRp207
sg10
(lp208
F10.79797870788196
aI2
aI2
aF5.3127338235179673
aF3.5180901752889846
aF6.0713358245713174
aF4.3824340492681824
aF8.5353242699175791
aF2.7077537487989813
aF1.2688889428869434
aF3.3456069209685286
aF0.0075481158924994851
asg12
I500
sa(dp209
g3
(lp210
F10.6780357581699
aF2.2164791945690494
aI0
aF2.4293512724299449
aF7.0102654202346084
aF5.2384879712537034
aF4.1131667649182244
aF3.7977773024962969
aF6.8495377682058391
aF0.29879019343094637
aF1.9463304761396585
aF8.1185865172153466
asg5
g6
(g8
S'\xa0=\xe9\xccj\x0e\x04@'
tRp211
sg10
(lp212
F9.860316256653622
aI1
aI1
aF3.0449753465514342
aF2.4160012488658231
aF6.8105734887566385
aF0.39111699645864856
aF6.7075798492079617
aF6.6665041664463471
aF3.082941335574636
aF5.2822163884340654
aF7.5227798338932867
asg12
I500
sa(dp213
g3
(lp214
F9.959026678159093
aF0.27188799721093138
aI1
aF2.2116833354277108
aF8.683117591925825
aF1.6488659288496461
aI0
aI0
aF0.62038908227221445
aF0.21953526634317816
aF0.24953615491746312
aF0.2105732745715363
asg5
g6
(g8
S'\xa6\xf4\x94\x93D\x8d\xe2?'
tRp215
sg10
(lp216
F9.9627681436013802
aI0
aI0
aF0.24595319223855977
aF0.0031198314608158473
aF0.095411833999130113
aF1.1333533369900253
aF8.1166881535307756
aF4.3535773107981877
aF2.8280795542488439
aF7.6411514749726406
aF0.51607448989921201
asg12
I500
sa(dp217
g3
(lp218
F10.498778404066973
aF1.4336665932504813
aI0
aF5.6666650000000001
aF0.63043435064400066
aF8.1804504520070989
aF3.807633709919751
aF0.88778879712365044
aF9
aF1.5538729750178075
aF7.6551139527644061
aF7.5776087508005698
asg5
g6
(g8
S'\xf6\x17\xfd\xe9\x1a5\xe2?'
tRp219
sg10
(lp220
F10.438035441675845
aI2
aI2
aF1.2421903410609407
aF8.4599157466617285
aF8.2715899907526431
aF3.3248657471207737
aF2.5964987013939949
aF8.1163590756322535
aF5.4391098853158963
aF0.20321435552860712
aF8.4795205095659494
asg12
I500
sa(dp221
g3
(lp222
F10.382001768236947
aF0.15577638722510886
aI1
aF4.7753698664856428
aF7.1765397062555065
aF7.880346130566096
aF0.39252202173979389
aF3.8624537573197864
aF1.5284820411786089
aF1.3318521359055557
aI0
aF3.8926029073703545
asg5
g6
(g8
S'2\xa9A\x88\xb9\xf7\xc1?'
tRp223
sg10
(lp224
F10.263199101076646
aI0
aI0
aF0.31139935448451783
aF3.8909113647247726
aF1.6394491744839335
aF5.4228259721173986
aF8.3151896165607084
aF8.0676253924351222
aF1.9285893923034736
aF0.36057041891134467
aF3.2843625674498824
asg12
I500
sa(dp225
g3
(lp226
F8.0530227242717398
aF0.82107175003695554
aI2
aF1.1716243779208209
aF7.4496818389051311
aI0
aF3.4354476662787987
aF0.26142705560663154
aF1.8043789860230568
aF0.052158919726541943
aF0.011641019133058282
aF6.9872757819681066
asg5
g6
(g8
S'\x0f\x97\xa8\xffr\xfe\x1a@'
tRp227
sg10
(lp228
F8.209189861117693
aI1
aI1
aF1.4493053409796275
aF0.54150858267584234
aF2.1237221033158518
aF5.3440099679028163
aF0.027179874117394864
aF2.7994209154824583
aF1.1370160586927625
aF7.7744941766653017
aF0.21992694260268564
asg12
I500
sa(dp229
g3
(lp230
F9.0096986521263513
aI0
aI0
aF0.45360799544183206
aF4.2611701675321321
aF4.0189620759854874
aF3.4768127649571561
aF4.6316700520856626
aF6.2804104365470277
aF2.5857435869653882
aF4.6634398763426024
aF2.3030854607151414
asg5
g6
(g8
S'T|\x1e9\xa1\x1f\r@'
tRp231
sg10
(lp232
F9.5846534430338792
aI1
aI1
aF1.793726001144798
aF6.0702194429960645
aF8.0164583216134719
aF2.3383281550247514
aF4.0254505110682652
aF0.9133058914096791
aF4.6809737130261784
aF5.4837409235382815
aF5.6495107215083431
asg12
I500
sa(dp233
g3
(lp234
F11.180640961575548
aF3.2086664500797268
aI0
aI0
aF7.0899936928026364
aF3.7519717491776921
aF0.90344625266348666
aF1.3182658887580774
aF3.2735725359281309
aF0.20464182213617735
aF5.9678891904584841
aI0
asg5
g6
(g8
S'\x85\xc8\xab\xe0>\xf6\x0b@'
tRp235
sg10
(lp236
F10.32566825183309
aI2
aI2
aF0.08971223810426307
aF4.1444227845324146
aF0.66406415819752218
aF4.3979886010445783
aF0.44362616661833154
aF4.47163849556682
aF0.81825993164729027
aF6.9655336313048828
aF0.35614447416494954
asg12
I500
sa(dp237
g3
(lp238
F12.33333
aF1.8427579449780767
aI2
aF0.061499900371191352
aF9
aF8.2019996849524741
aF5.6666650000000001
aF5.9320716672623055
aF4.5405808485111452
aF3.1199872490912521
aF7.9515509488299623
aF0.8416730926610817
asg5
g6
(g8
S'\xea\xbb\xbc\x97\x1e\xd3\x1a@'
tRp239
sg10
(lp240
F11.409550306402709
aI0
aI0
aF3.5739505272786243
aF6.3435765862885471
aF7.3363686587776815
aF3.1332778788619984
aF8.0081528274462617
aF0.74311980916312093
aF3.648178213725767
aF7.3802839856593812
aF8.4385217463134801
asg12
I500
sa(dp241
g3
(lp242
F12.044723847549484
aI0
aI1
aF1.6095305967827902
aF5.5750262550771916
aF7.1601664102048321
aF4.2158172768541
aF8.748032287454965
aF6.1871309494897382
aF4.6748498355400985
aF2.2044706941226702
aF8.6040763907726063
asg5
g6
(g8
S'\xa2\x1d#\xb0~\xc2\xf7?'
tRp243
sg10
(lp244
F12.02428916014525
aI0
aI0
aF2.9956966513099741
aF8.6832387599404282
aF7.0311008756621325
aF2.6617339624169967
aF6.0593027224981082
aF7.7013755733328848
aF4.7096209929668591
aF2.7255807055866703
aF6.5962366492286968
asg12
I500
sa(dp245
g3
(lp246
F9.8398370434398625
aF0.85328134530035138
aI0
aF0.36825811917220358
aF0.34210016296357393
aI0
aF3.015970460009624
aF7.9690444458427647
aF2.1076179284884864
aF2.8040556883499597
aF4.789788806175963
aF2.3936719373527815
asg5
g6
(g8
S'dK\x01QN@\xd2?'
tRp247
sg10
(lp248
F9.5988685529941975
aI1
aI1
aF3.6589942951061283
aF6.8996050677894161
aF0.31717768662654278
aF0.20136946780622947
aF0.37753151107163607
aF0.22851156164646036
aF0.37417264784345816
aF2.5463186484002307
aF8.4203480207331918
asg12
I500
sa(dp249
g3
(lp250
F7.9799360387188853
aF0.40012451283481359
aI2
aF2.149658218471405
aF7.7745016263013333
aF5.0976486751694869
aF5.345604468157088
aF7.2573937455553699
aF9
aF4.2293735768960019
aF4.0488418591802393
aF1.8750852386765049
asg5
g6
(g8
S'\x81\xea{\xc1\x84\x98\x05@'
tRp251
sg10
(lp252
F8.1278487755483972
aI0
aI0
aF2.5001992259265684
aF3.7047324212089432
aF3.9192705605219524
aF3.4515491198562027
aF5.7436200883774351
aF4.05897462498144
aF4.0950327417760395
aF8.4075359415940607
aF5.4902198829928084
asg12
I500
sa(dp253
g3
(lp254
F9.8369801285628018
aF1.5678252832870112
aI0
aF2.0650856759892329
aF0.89800262413157461
aF1.4217042510981366
aF5.6666650000000001
aF7.2961485882656927
aF3.9701363890275641
aF2.7854777423246797
aF1.1790738322166598
aF4.1674553764521232
asg5
g6
(g8
S'b\xac)\xff\xbd]\xf7?'
tRp255
sg10
(lp256
F9.6328202416726896
aI1
aI1
aF5.5127148152472634
aF3.0260685405603271
aF5.993200818646903
aF2.7349522088795624
aF1.3757382404316378
aF0.21514899924786246
aF4.5264758487817565
aF7.7110521679607809
aF5.3041293395768854
asg12
I500
sa(dp257
g3
(lp258
F9.9502743350353153
aF2.5423859938962083
aI0
aF0.29094601402885784
aF7.8875229687810995
aF3.4391554375935871
aF1.1551770672459929
aF0.49031034544522101
aF4.1210828985862245
aF1.193134743646671
aF3.2720988637989228
aF2.2988918894303176
asg5
g6
(g8
S'\x8d\xa7\x1c\xf0-F\x03@'
tRp259
sg10
(lp260
F9.6945989598392703
aI2
aI2
aF2.0560708406678661
aF2.6306698222381675
aF6.7258025890842053
aF0.68280736694458855
aF1.2851060402682333
aF2.4809566817168229
aF1.5277509633087281
aF7.1270445793829422
aF1.5165127006157171
asg12
I500
sa(dp261
g3
(lp262
F9.238753535168998
aF3.3615844055270494
aI1
aF4.0321203206795371
aF7.4164517320618533
aF6.4515438710120332
aF2.4174110412428989
aF2.6350390611850845
aF2.7471707844452986
aF3.863771197587702
aI0
aF2.5363459688243499
asg5
g6
(g8
S'\x8c\xccSo\x80Y\x11@'
tRp263
sg10
(lp264
F8.8257432809885135
aI2
aI2
aF0.26014741301834576
aF6.8082432251881499
aF7.4199930155467237
aF4.3771693764719171
aF0.801474921391645
aF0.67806072870152878
aF1.3537433311492899
aF4.167282677500677
aF6.6630249677654776
asg12
I500
sa(dp265
g3
(lp266
F9.2743374032625638
aI0
aI0
aI0
aF4.1751373927555324
aF4.0494353611616445
aF3.3087334085382669
aF7.5189492303022893
aF7.4117304182627608
aF3.2415651406160864
aF3.314154626185712
aF3.7333467572516126
asg5
g6
(g8
S'\xe3\xbf@\xdd\xc7\xdb\x0c@'
tRp267
sg10
(lp268
F9.168110155389007
aI0
aI0
aF1.9279008228713446
aF4.1563140738149542
aF1.0005725896917141
aF5.4721361672834474
aF2.0471929887151927
aF6.9455230481304628
aF3.2879107728811632
aF8.713310491651713
aF8.1395031519602661
asg12
I500
sa(dp269
g3
(lp270
F9.8290332556950268
aF1.1732311677039384
aI0
aF5.6666650000000001
aF1.1567595709931655
aF6.624810859268619
aF2.0111171807495354
aF3.0374573457154526
aF3.4925139111492829
aF1.1869310712921823
aF6.3049242300569208
aF3.5262095512104614
asg5
g6
(g8
S'*\x9d\xe0\x17\x9fS\r@'
tRp271
sg10
(lp272
F9.111430543310016
aI0
aI0
aF2.4838499737793067
aF1.8682512925898203
aF8.2986637263045644
aF2.5512462616845411
aF5.9298365270027746
aF1.518947924627551
aF0.25761112299682881
aF0.54647525076365178
aF5.74601292955247
asg12
I500
sa(dp273
g3
(lp274
F9.4999497560353383
aF2.1538652227277524
aI2
aI0
aF3.273846160674422
aF3.3340371274973868
aF2.5223354553451394
aF3.7142227111056196
aF3.0840239419026401
aF5.6666650000000001
aF1.7700062035167214
aF2.143069997181708
asg5
g6
(g8
S'\x15l\xe2\x9a\xbeG\x1a@'
tRp275
sg10
(lp276
F9.8477565353280649
aI2
aI2
aF5.5973220162282615
aF3.3381026450835454
aF3.5725278319485727
aF2.1171070011076121
aF3.7268669765575657
aF0.39688013361325158
aF4.755177427165787
aF1.1058643438888951
aF8.6156146526745143
asg12
I500
sa(dp277
g3
(lp278
F7.9313714808298936
aF0.95682410565630827
aI2
aF5.2489454785524865
aF1.9030106565085931
aF0.689425368976328
aF5.4991473219672127
aF1.8166540069312356
aI0
aF2.6038307754043473
aF6.0819689564430295
aI0
asg5
g6
(g8
S'\x1bd#\xb2\xe7G\xf3?'
tRp279
sg10
(lp280
F7.9301506236163721
aI1
aI1
aF3.6702504096986357
aF3.9657977130915278
aF3.4677316143581969
aF1.8952430717168489
aF6.3371840657630578
aF0.94070512854210964
aF5.6083393036060292
aF1.3748367743479706
aF0.13501984682645241
asg12
I500
sa(dp281
g3
(lp282
F11.354300664139402
aF3.2364370021429685
aI2
aF4.0725903306194047
aF4.8465713370675143
aI0
aF3.1053357828867174
aF7.3400015089099266
aF2.9574338218715153
aF1.973318868818702
aF2.8762818037897944
aF5.6331679441519844
asg5
g6
(g8
S'\x0f~\x8e\xf9\x0fx\n@'
tRp283
sg10
(lp284
F9.7976168026823416
aI1
aI1
aF3.5832210287998558
aF7.8922939747668099
aF3.1344091800365814
aF3.2176921304726762
aF3.311966440072359
aF2.5985825837245198
aF3.2473615787965886
aF5.0495417375040166
aF1.067604133950024
asg12
I500
sa(dp285
g3
(lp286
F9.0926722344662299
aF0.46974588799994649
aI1
aI0
aF6.641270923801871
aF5.1674938257329277
aF2.416639880773185
aF1.2920085881237549
aF6.8146059972435804
aI0
aF5.0179357814031968
aF3.1438347960385262
asg5
g6
(g8
S"\xf6'\n@\xa6\xff\xf5?"
tRp287
sg10
(lp288
F8.7644813895815403
aI0
aI0
aF1.1083281440500041
aF1.6272483633989263
aF7.0721410853695374
aF0.47109448072519622
aF5.0170089375933955
aF2.087843250367694
aF1.1577652820134561
aF6.9242300980049363
aF8.0083079080093196
asg12
I500
sa(dp289
g3
(lp290
F10.522742132942966
aI1
aI1
aF0.21433444309467709
aF8.0398332073033529
aF5.9734980496241752
aF4.1948559999268511
aF2.5783552694681493
aF6.8810116798035272
aF0.90379162264839508
aF4.5260987144018898
aI0
asg5
g6
(g8
S'\x81\r1\xef\x88\x17\xf9?'
tRp291
sg10
(lp292
F9.8222375108800772
aI0
aI0
aF2.7208251405046706
aF2.7613025109897862
aF7.3841600678169188
aF0.81357545659040409
aF7.8075397888988523
aF4.8917307477347487
aF0.78917019890802842
aF4.4774680586650293
aF0.02592128566410612
asg12
I500
sa(dp293
g3
(lp294
F10.015779693200002
aF1.8420835223825023
aI2
aF4.3760693359771725
aF7.562769439876047
aF3.8899983112299488
aF1.0679257190677223
aF6.6954616563996545
aF0.91798567426699906
aF1.5394880805870133
aF5.9361525869903744
aF0.67744644141306853
asg5
g6
(g8
S'D7\xee\x00G\x0c\x17@'
tRp295
sg10
(lp296
F9.753995280650221
aI1
aI1
aF2.9499523006908341
aF8.2199093464359461
aF4.3849391590302078
aF0.79809848005110606
aF5.2838461808285508
aF6.3541851220428756
aF1.2782307317274335
aF6.5682167043379875
aF0.2130035637172808
asg12
I500
sa(dp297
g3
(lp298
F9.238028860042812
aI0
aI0
aF1.5387144554129324
aF2.1431801199158418
aF5.3260702871015306
aI0
aF1.5668565831124619
aF4.1558469265640809
aF3.6860013154930642
aF3.5600287875488181
aF2.6301426718698195
asg5
g6
(g8
S'\x9c\x9d\xde~\xe5\xd1\x0b@'
tRp299
sg10
(lp300
F9.1514351937134784
aI0
aI0
aF1.283289302019551
aF2.436843336817982
aF1.8704305144056415
aF0.45409795236068112
aF4.519432018936417
aF7.0083006189258752
aF5.3772324898783115
aF2.2001123466981838
aF2.1478453717460231
asg12
I500
sa(dp301
g3
(lp302
F10.376618522069535
aI0
aI2
aF1.0118079959042321
aF0.5894664469793307
aF9
aF0.99542264533156999
aF2.360615991945104
aF5.176271329757359
aF2.8489137198828396
aF1.3074819463794181
aF2.1877054289799771
asg5
g6
(g8
S'O\x15\xd1\x97\xdc1\x04@'
tRp303
sg10
(lp304
F10.462772101875903
aI0
aI0
aF1.1575184649714678
aF1.2055072865684013
aF4.0588304005566052
aF3.0403552222971078
aF2.4421989032514682
aF1.321885488229007
aF2.6574636967325698
aF1.1630897306158139
aF5.4533067846225949
asg12
I500
sa(dp305
g3
(lp306
F12.33333
aF2.6638741584466823
aI0
aF5.6666650000000001
aF8.3846456011865875
aF6.8519810708281748
aF1.8185133141250722
aF4.6521531145494572
aF0.89664662915233118
aF1.1380014556928604
aF5.0482237676426429
aF1.4229888754146667
asg5
g6
(g8
S'A\xc9\xfc{\x92|\x14@'
tRp307
sg10
(lp308
F11.56127689977286
aI2
aI2
aF0.15698171571927547
aF4.2985426630561419
aF5.1882310046203299
aF1.4816812771900976
aF4.2056094471765384
aF0.81603518327039015
aF1.1973734557071267
aF7.938076611015207
aF4.3908158987984871
asg12
I500
sa(dp309
g3
(lp310
F10.821524996599859
aF1.8440613224581774
aI0
aF3.3412396659576857
aF7.023712833569844
aF3.5552543853673813
aF4.8482531251243906
aF8.699929182502931
aF3.2083840115226838
aF4.3523842733613867
aF9
aF1.5303307758437152
asg5
g6
(g8
S'\x95\xceV%}\x08\x10@'
tRp311
sg10
(lp312
F9.4118043020695996
aI0
aI0
aF1.8118417081645803
aF6.5056892539974243
aF7.2239028188469883
aF4.7605114901750643
aF8.1985850469592538
aF7.5146109082555705
aF4.2269816682518888
aF8.5088300131096641
aF0.38852038118366594
asg12
I500
sa(dp313
g3
(lp314
F9.5586351097537356
aF0.021755597719053037
aI0
aF2.2684200851092253
aF1.4585596962988729
aF5.2752954957113047
aF1.8846928542030521
aF0.21561592219186418
aF2.2063692664428496
aF2.7361476137889
aF6.0035078848642067
aF1.5018813091248784
asg5
g6
(g8
S'd\x84\xa9\xed\xdb\xfc\x10@'
tRp315
sg10
(lp316
F9.769679427030324
aI1
aI1
aF2.4926360483252563
aF5.2581780794818407
aF2.0969580629296267
aF2.6079504675038194
aF0.8878512995449388
aF1.0806025999449234
aF1.4420284087553044
aF6.9921547183801511
aF5.778972992841501
asg12
I500
sa(dp317
g3
(lp318
F10.10963438848507
aF0.55575887626697251
aI1
aF5.5853317467184045
aF1.0412287387216126
aF7.3654157302476237
aF1.5576996871013273
aF6.4194965152027157
aF3.7343696829187412
aF1.5487586396912718
aF3.7713232860308836
aF4.1091323747900166
asg5
g6
(g8
S'Z\xcc|\xc6\x13\xe6\xe9?'
tRp319
sg10
(lp320
F10.330905834430316
aI1
aI1
aF2.843166657360833
aF1.2427565657032251
aF6.0847588934960557
aF0.91110549067104052
aF6.6357674832327458
aF3.2982883494800204
aF5.4270295497114249
aF2.7581319803468709
aF6.6071382269404451
asg12
I500
sa(dp321
g3
(lp322
F10.371869767666775
aF1.0681249728679578
aI2
aF0.42102335225300602
aF9
aF0.60550453066536603
aF2.3352412073496911
aF4.816354100565329
aF9
aF2.7569946640635177
aF1.9841562176854257
aF5.2807709695181666
asg5
g6
(g8
S't\x80\xef\xae\xcbn\xda?'
tRp323
sg10
(lp324
F10.275993703336592
aI1
aI1
aF0.75592644290205735
aF8.9401885111983628
aF0.26029718361625742
aF2.4311505087793477
aF1.9987135502499576
aF5.5341342208209481
aF2.7236508416659602
aF3.9845689943882086
aF8.5419251247576931
asg12
I500
sa(dp325
g3
(lp326
F11.419502693454497
aF2.880159333702438
aI2
aF2.4355158085733577
aF6.4319609214908384
aF6.9920283880980669
aF5.6666650000000001
aF3.7385311715693339
aF9
aF5.6666650000000001
aF4.7618716727499306
aF3.8279657498227944
asg5
g6
(g8
S'r\x97\xc8\x9e\xbe"\xf0?'
tRp327
sg10
(lp328
F10.957199038716364
aI2
aI2
aF2.7398430199948596
aF4.7028635555539235
aF8.6858483146448933
aF3.01513418477581
aF7.2344823593819054
aF8.7768471427860408
aF5.3159044619330329
aF4.610676838691365
aF4.7613168428567851
asg12
I500
sa(dp329
g3
(lp330
F10.172354626635931
aF0.83939614563596443
aI2
aF1.9929871245850515
aF7.8445789175452809
aF7.3138159129541478
aI0
aF7.7124426905727814
aF9
aF1.691015740220321
aF0.72037495364797555
aF4.2790826753512468
asg5
g6
(g8
S'P\x14\x11\xe79\x0c\xca?'
tRp331
sg10
(lp332
F10.195057239739228
aI1
aI1
aF1.3796333698507766
aF5.5514140826148024
aF7.1857864688145838
aF1.5110505064967847
aF0.64460749437885079
aF4.3363826661966725
aF1.769158999059022
aF8.9873976326491078
aF7.1748996460544188
asg12
I500
sa(dp333
g3
(lp334
F8.8253218685233037
aF1.8294666304618354
aI2
aF4.1523503867135236
aF4.8927112963366346
aF2.837359237528895
aF0.96577580785495321
aF5.7654221711400684
aF6.260523798868709
aF2.6120963521905924
aF8.1775977183336082
aF3.9386655134543886
asg5
g6
(g8
S'\x9f\xbbq3\xb8\x88\t@'
tRp335
sg10
(lp336
F8.8729228607207098
aI2
aI2
aF0.043916334021697069
aF6.9930099806445742
aF8.517969582880708
aF4.2478587473779204
aF5.3005849404077772
aF1.1139087912067707
aF0.56859790803829935
aF8.2666649242250205
aF6.3888691020942332
asg12
I500
sa(dp337
g3
(lp338
F10.09062177271872
aI0
aI2
aF0.82507318660459172
aF3.4228184822609724
aF4.1814957333924303
aF3.872945159907049
aF4.467189060730675
aF4.3568653496807315
aF3.8838274813731766
aF1.4566443096756299
aF5.5026148208369419
asg5
g6
(g8
S'\xd9<\xe7\xaa\xde1\x05@'
tRp339
sg10
(lp340
F10.121495352766097
aI0
aI0
aF2.4479853755043512
aF1.4786796124494841
aF7.7290311992312164
aF3.2619034162143357
aF4.4238451717232561
aF3.5456340413175753
aF3.0737347669959334
aF2.8332782121041706
aF3.4085569979310515
asg12
I500
sa(dp341
g3
(lp342
F10.479935933819865
aF0.81523544593522501
aI0
aF5.6666650000000001
aF7.2795626645119125
aF3.8103721547460006
aF5.6666650000000001
aF9
aF8.8233639795170848
aF3.7993393964212938
aF0.53762277804115854
aF5.6065300680377161
asg5
g6
(g8
S'x.\xeb\xe1rA\x16@'
tRp343
sg10
(lp344
F10.63273113546979
aI1
aI1
aF5.6378001474437571
aF0.52930581608064942
aF5.5226271974789451
aF0.8515955748954519
aF7.5489882342283998
aF6.585199040312169
aF5.5339827846406653
aF5.3380839596022218
aF8.8849118238883626
asg12
I500
sa(dp345
g3
(lp346
F9.539660647291992
aF2.9513378263663443
aI0
aF4.830585865586734
aF2.1495535043134888
aF1.4922273231900713
aF3.7907926671999652
aF6.9684308785376388
aF5.6851471768033477
aF1.6681077776698716
aF8.0212066224657086
aF3.3576693620200713
asg5
g6
(g8
S'C\xf8d\xf0E_\x0b@'
tRp347
sg10
(lp348
F9.2450204074666136
aI2
aI2
aF3.1136738344642549
aF7.1204675807316722
aF1.1941246362290658
aF3.1591490738620198
aF1.7668450899413906
aF6.3683706436028817
aF4.605047995644787
aF2.2822657686634003
aF4.9037255328264813
asg12
I500
sa(dp349
g3
(lp350
F10.359799798594143
aI0
aI1
aF0.65081856734285504
aF1.4386509457709618
aF4.4082081197803618
aF3.319165990899605
aF5.6198835249907066
aF1.4823481497136077
aF1.1859181564880161
aF4.8727352459007856
aF3.3582340489562412
asg5
g6
(g8
S'\x86\xae\xef\xf7W\x88\xea?'
tRp351
sg10
(lp352
F10.296063051901111
aI0
aI0
aF2.6157156879799452
aF5.7234060255670238
aF1.0558276672484737
aF1.1047538687403071
aF3.5645827793375089
aF8.2926525525046593
aF2.3968517906817755
aF2.5526583507777874
aF2.1258035389308718
asg12
I500
sa(dp353
g3
(lp354
F12.072827014628173
aI0
aI1
aF3.6757276322212356
aF3.797903014322678
aF3.7283227219412836
aF1.341321457631971
aF4.4290480419373788
aF4.1144837615809813
aF5.6666650000000001
aF4.32644914095318
aF3.7510766829586464
asg5
g6
(g8
S'U\x1e\x04\xd38\x16\xf1?'
tRp355
sg10
(lp356
F11.920105140528534
aI0
aI0
aF1.8763749533014402
aF4.6077138143755345
aF3.2076978363639648
aF1.4658981342260926
aF1.095877352696256
aF8.9499507781673646
aF5.5178157082974275
aF4.6608688171387573
aF2.3008651851677486
asg12
I500
sa(dp357
g3
(lp358
F9.3765063246037386
aF1.9806352501115152
aI1
aF0.59238120473969469
aF9
aF3.2719114408200651
aF3.1550234858572055
aF7.3542791801043386
aF4.7334162894574723
aF1.0101614357585864
aF6.4941688488527483
aF3.1248726728390137
asg5
g6
(g8
S'H\x99\xd0!#\xb1\x03@'
tRp359
sg10
(lp360
F9.1950554493026324
aI2
aI2
aF2.9759352991694787
aF6.1391798356086378
aF4.3007373555261097
aF0.85270380634127307
aF8.3825387716648478
aF2.4283872153275081
aF0.75954714266165557
aF7.4836355870507294
aF4.1821388943778084
asg12
I500
sa(dp361
g3
(lp362
F9.757282365796085
aF1.663893812079758
aI2
aF3.227172993849607
aF4.7277969951578731
aF3.8551449613993261
aF1.0062579877260716
aF8.9449323382020953
aF5.8060394489238245
aF4.0095032293981729
aF7.9348046724156172
aF2.6188962278522459
asg5
g6
(g8
S'#\xf5\xe9\xca\xf73\x01@'
tRp363
sg10
(lp364
F9.4512740089682925
aI1
aI1
aF5.0784833079278497
aF0.5058892470449875
aF7.103871880788672
aF4.3531135464733088
aF7.2468756993247707
aF0.61071341930470346
aF0.65960594993849853
aF6.967774166166679
aF5.3242012473988307
asg12
I500
sa(dp365
g3
(lp366
F9.6758518521242749
aF2.0989583352760639
aI0
aF1.949145464511735
aF8.1932487523561033
aF4.4839056642142143
aF5.0508267083089908
aF1.5656745730470294
aF6.343150207648093
aF3.8836708186497804
aF7.249878914493733
aF0.41673686382695435
asg5
g6
(g8
S'I\x9av\x0b\xf9\xad\xfa?'
tRp367
sg10
(lp368
F9.7681614443209579
aI2
aI2
aF2.9779047975183519
aF7.6551874551733325
aF1.2800992360578842
aF4.8471708862091463
aF0.81277463860254295
aF7.8794479638939467
aF2.9411083100641244
aF8.1764875434179718
aF5.8241286933312262
asg12
I500
sa(dp369
g3
(lp370
F12.32101428108229
aF0.11921680281015729
aI2
aF0.96424429427485947
aF2.8229788379147469
aF0.70405178404306523
aF1.40693851577259
aF0.89864573346087551
aI0
aF4.0438166264746584
aF4.7492150384973044
aF5.5253816633387061
asg5
g6
(g8
S'~\xb5\xc8TB\xbe\n@'
tRp371
sg10
(lp372
F11.806285305852525
aI0
aI0
aF0.77021082676553465
aF4.7292913594958996
aF6.2022038105204924
aF0.14576496571577632
aF0.34446750831395101
aF0.8713547380151192
aF1.9189581489876943
aF2.4903793725788201
aF0.2813609469180377
asg12
I500
sa(dp373
g3
(lp374
F9.2375711881818283
aI2
aI0
aF0.067497083739602226
aF0.92664640850031521
aF4.8582331323086461
aF0.1772864520313481
aF2.4933187415929261
aF0.89002527893601702
aF3.7771964380746987
aF3.8890280729284754
aF2.6403221518439999
asg5
g6
(g8
S'\x1d\\Am\xc1\xa2\x12@'
tRp375
sg10
(lp376
F8.7348686734981058
aI1
aI1
aF0.62966128683633416
aF5.9610601367359086
aF5.4729233593085329
aF3.6251157983305364
aF1.969682391048897
aF2.0366810478510802
aF0.62383857120361608
aF2.2924447908115866
aF0.32790507571928273
asg12
I500
sa(dp377
g3
(lp378
F12.120184829804073
aF4.9459172218262832
aI1
aI0
aF5.3169871479925988
aF5.3812213814343055
aF3.9944876843267738
aF5.3142873399862758
aF3.456922550285682
aF5.6666650000000001
aF1.9835912575887074
aF5.2662346642139273
asg5
g6
(g8
S'\xe2_c\x98\x89\xb4\x06@'
tRp379
sg10
(lp380
F9.4597525284217454
aI1
aI1
aF0.79652671739495073
aF5.8417527454084599
aF4.6246606217573252
aF2.8379291573025505
aF5.010896310353445
aF6.0309153803533615
aF4.3357179278659723
aF1.3503130013639058
aF7.621555958595633
asg12
I500
sa(dp381
g3
(lp382
F9.7005857327591229
aF1.29157247289695
aI1
aF4.1839305538123117
aF7.6667820797938404
aF9
aF1.2699612372475046
aF1.8587630129071551
aF6.7136943773004214
aF3.9046820030897065
aF7.5238928315178661
aF5.533660470262852
asg5
g6
(g8
S'td\xb7\xb8iu\xfd?'
tRp383
sg10
(lp384
F10.167420197277986
aI2
aI2
aF5.6513886985422017
aF6.5098391638477686
aF4.3286158560872803
aF1.6380520602984008
aF7.8772571552251742
aF8.9948418301817608
aF0.50401141889900736
aF1.4143959205709689
aF8.3279274275247293
asg12
I500
sa(dp385
g3
(lp386
F10.214192180130674
aF0.79852800982303573
aI1
aF1.2350988752285805
aF5.2053663915995916
aF7.7841794275143927
aF3.1696262688039378
aF7.071801985514675
aF5.7739000926199431
aF0.4783665447709049
aF9
aF3.569965667024575
asg5
g6
(g8
S'\x98h\x1a\x91\x02\xbc\x08@'
tRp387
sg10
(lp388
F10.524618478592572
aI1
aI1
aF5.2163727978850334
aF1.5211330452680101
aF8.4049386681802165
aF1.0915274438212961
aF7.0866705416666429
aF8.0631188216989269
aF2.1775060953406804
aF7.6402039977025638
aF1.4704688046478838
asg12
I500
sa(dp389
g3
(lp390
F9.1912237480453172
aF0.64326008923243438
aI0
aI0
aF7.821995868177182
aF6.7074773307145765
aF4.174754975023661
aF3.2433499481959736
aF1.1027222523727733
aF2.331921774265258
aF4.4604380957501295
aF0.22269086596618526
asg5
g6
(g8
S'\xa7d\xe3\x8fS\x02\x00@'
tRp391
sg10
(lp392
F9.6359585136570214
aI1
aI1
aF2.0419227178709156
aF4.8589781415596027
aF0.32078140455061499
aF1.9720466341982781
aF8.1473034387927417
aF6.8062301806358292
aF3.9925670805441067
aF3.2165293878959704
aF0.32587327657751086
asg12
I500
sa(dp393
g3
(lp394
F9.9300142997663965
aF1.5725333229503624
aI2
aF0.4818481480061928
aF7.5074939016111184
aI0
aF5.3056250597748944
aF7.1577661506777392
aF6.6573268157741037
aF3.7311939256697233
aF4.9132340600904589
aF2.2023899728374987
asg5
g6
(g8
S'\xae\x15t\x9d\x8ch\xf9?'
tRp395
sg10
(lp396
F10.427702162999813
aI2
aI2
aF2.8139733675686589
aF7.7328740006975281
aF4.2955573135268459
aF0.21896321460290413
aF7.4601823103151848
aF0.05979860820189431
aF5.2103888934006957
aF4.6130852291543842
aF1.7087145156791346
asg12
I500
sa(dp397
g3
(lp398
F11.077978049744463
aF0.44481871105808551
aI2
aF5.6666650000000001
aF3.8413584849787701
aI0
aF4.6113856874855053
aF5.4930152662712661
aI0
aF0.080329981899817965
aF2.8870002993021666
aF1.7132537933372485
asg5
g6
(g8
S'\xbeG!\xaa\x8eg\xee?'
tRp399
sg10
(lp400
F10.549645516047706
aI0
aI0
aF0.75034993198992106
aF3.0037357501369701
aF1.0497671439818568
aF5.5604187185860985
aF4.1068254101765982
aF0.028374939922582998
aF4.8715389473804516
aF5.6048594992492928
aF0.17840985529429931
asg12
I500
sa(dp401
g3
(lp402
F9.5886774131571944
aF1.7398530834816632
aI2
aF0.47269401659971366
aF8.8034595170549412
aF1.4904773277353061
aF2.022585598046482
aF2.2984729688655503
aF6.0969017648435893
aF0.4852799692559977
aF0.23842713743631813
aF7.5231896295034524
asg5
g6
(g8
S'\xe9\x8c9\x99\xdb\xe6\r@'
tRp403
sg10
(lp404
F9.6248093913900554
aI2
aI2
aF0.52134831477597021
aF8.2733029907806728
aF5.8239822064424871
aF0.013203597132837966
aF8.7846030960829111
aF1.7709353564891652
aF3.0384151695756398
aF0.085125796806361009
aF4.7976481057250417
asg12
I500
sa(dp405
g3
(lp406
F8.9406378367998389
aF0.8093815714838567
aI0
aI0
aI0
aF3.6742620297375432
aF0.063976407135669808
aF5.9071139476080621
aF2.0520955466117132
aF5.3868670709225865
aF2.0472827960719431
aF1.2916576516958691
asg5
g6
(g8
S'\xa8yUb!\xfc\x07@'
tRp407
sg10
(lp408
F8.6373518234297197
aI0
aI0
aF2.5779755727435916
aF0.61616697491454175
aF2.2731742108341821
aF0.24895045788578263
aF5.4105007056665899
aF1.7848765916423683
aF5.6241924688671805
aF1.7143715161248729
aF6.6903654971497879
asg12
I500
sa.