(lp1
(dp2
S'guess'
p3
(lp4
F9.8491492035249166
aF5.6614459845881102
aI0
aF1.3304971450472927
aF1.2134803986397265
aF9
aI0
aF0.49779007656734886
aF6.0097792962324021
aF2.2290777814817919
aF7.6704366549006142
aF2.783675969355111
asS'guess_score'
p5
cnumpy.core.multiarray
scalar
p6
(cnumpy
dtype
p7
(S'f8'
I0
I1
tRp8
(I3
S'<'
NNNI-1
I-1
I0
tbS'~\x97\\\xc6T>\x1b@'
tRp9
sS'target'
p10
(lp11
F10.029924117022334
aI1
aI1
aF0.3681518619000092
aF5.1834416470483724
aF7.2680256501617677
aF3.2189763708262098
aF5.9098441134994912
aF4.4430527934240125
aF5.2089983941903677
aF3.828268640630387
aF7.8590696271540414
asS'num_samples'
p12
I100
sa(dp13
g3
(lp14
F10.002959724469417
aF4.312318756679157
aI0
aF2.1593775293887418
aF7.4026921833805144
aF3.7439235074902002
aF5.1256246928554674
aF6.6756356126918615
aF9
aF3.6272400817378738
aF3.8160185118445176
aF5.3820862814136676
asg5
g6
(g8
S'\xe9\xcaa\x07\xea\xc4\x12@'
tRp15
sg10
(lp16
F9.910647201119021
aI2
aI2
aF1.1001382570891121
aF4.9583458203282404
aF8.3614377257870469
aF2.1570242656595817
aF7.8934095765959311
aF6.4296617617695784
aF2.3132848637461265
aF8.2259016367495779
aF8.3608823145230335
asg12
I100
sa(dp17
g3
(lp18
F9.0873034065402081
aI0
aI2
aF3.3639525856550887
aF1.2294505454719651
aF7.1845927387459581
aF2.5917519757032563
aI0
aF5.5206360859517183
aF3.5119599061972764
aF3.6030662964064626
aF7.7862408081365766
asg5
g6
(g8
S'b5[\xa8\tr\x19@'
tRp19
sg10
(lp20
F10.714669557542337
aI1
aI1
aF3.8714141246043567
aF0.92388709020371251
aF3.4635892138177455
aF4.5801030181441789
aF3.5827277155144381
aF1.5152264671452307
aF5.3845535526384189
aF2.2661419271424972
aF7.5595368586005041
asg12
I100
sa(dp21
g3
(lp22
F8.8473570115740312
aI0
aI2
aF5.6666650000000001
aF4.4991587152815891
aF9
aF2.9802983819469895
aF3.0533816359365749
aF8.6351227993817172
aF0.2957273258892541
aF6.8963275642393951
aF2.4695983646001616
asg5
g6
(g8
S'\x92\xdb;?\x95\xf7\x01@'
tRp23
sg10
(lp24
F11.043529429987018
aI1
aI1
aF2.3005376176333252
aF5.4867308142740443
aF5.7165348838421375
aF1.4990581617505374
aF8.6269982006679484
aF3.2447090311332869
aF4.5964365474183859
aF7.2902000677438661
aF6.30252982131341
asg12
I100
sa(dp25
g3
(lp26
F10.391259739191435
aF2.7289167046192366
aI0
aF5.3656747967830496
aF1.6819643421337349
aF6.3291717666638618
aF5.6666650000000001
aF6.6383518091814322
aF8.6664991637889806
aF2.001738869609464
aF0.92978107158178092
aF6.817502145550109
asg5
g6
(g8
S'~\xb2\nI\x97%\xf4?'
tRp27
sg10
(lp28
F9.3335457638667663
aI2
aI2
aF3.7009477571563241
aF3.2797243660334159
aF8.8672306985425315
aF2.0200508721735928
aF0.87066992965737078
aF2.6246105102347128
aF5.0124079213733728
aF1.7261749245482227
aF7.5369697072990016
asg12
I100
sa(dp29
g3
(lp30
F10.032060255391025
aF4.4503422996786606
aI2
aF2.7746770683270965
aF2.1064561684030352
aF7.3336495075369976
aF2.8311444246785689
aF5.2126223089663011
aI0
aF0.14979661649723924
aF1.8586355723340025
aF9
asg5
g6
(g8
S'\xc1\x0e\x98rE$\x17@'
tRp31
sg10
(lp32
F10.258861373244184
aI1
aI1
aF0.50419790389034691
aF5.5457513890132013
aF2.2177205872964638
aF3.1437021389854372
aF1.807579745205202
aF4.0497453440430711
aF4.0197022393925597
aF8.5361226678664917
aF5.5894439932932043
asg12
I100
sa(dp33
g3
(lp34
F11.111273655940845
aF1.1822899309013934
aI1
aF5.6666650000000001
aI0
aF3.2976530670744069
aF5.3665129001790444
aF3.6434586934218549
aF3.9815696301371557
aF2.9577905484552045
aF2.2980232521093056
aF5.0239707834440583
asg5
g6
(g8
S'N\x7f\x10\xbci\x83\xfe?'
tRp35
sg10
(lp36
F9.7868261721636056
aI0
aI0
aF3.4711628282824987
aF3.8503737134130387
aF3.9391334021184297
aF5.3319984635936528
aF3.9556504733756297
aF0.42580662829917826
aF2.1293500278143469
aF3.9906487486868873
aF6.8505769871447528
asg12
I100
sa(dp37
g3
(lp38
F5.7413145489632358
aF3.4924736584572464
aI0
aF1.1896787916712133
aF5.5469193317766443
aF7.8502462167035851
aF5.6666650000000001
aF2.2507368256939642
aF7.1575763719950061
aI0
aF4.5778969164573091
aF9
asg5
g6
(g8
S'\xee\x03\xb4K\x8dC\x18@'
tRp39
sg10
(lp40
F9.2714423595486082
aI2
aI2
aF5.3509353679498917
aF6.1396725895823883
aF5.6384575876884551
aF3.8484826489018471
aF3.975918914244752
aF0.33278658875581379
aF4.3054762228374344
aF8.3157511569525688
aF3.4432798208515245
asg12
I100
sa(dp41
g3
(lp42
F10.252881598182581
aF3.4318560560635984
aI0
aI0
aF2.0291205391892078
aF5.2244483682606164
aF1.1935526215934786
aF9
aF3.7006923562363903
aF0.54241114371941945
aF2.2602509948056082
aF8.3324446035200737
asg5
g6
(g8
S'\xca\x1cF\x84L\x8b\x07@'
tRp43
sg10
(lp44
F10.761765806856115
aI2
aI2
aF0.85357574221585164
aF6.7602931300292415
aF1.6199537217803179
aF4.9647494046300773
aF0.62178267082926142
aF8.0902301218847459
aF1.8454800764890043
aF0.89889387968974499
aF7.2189759489181862
asg12
I100
sa(dp45
g3
(lp46
F12.196510363801755
aF1.4014061104432014
aI0
aF1.9281958469118008
aF6.8313617253695291
aF7.6842357035747417
aF5.6666650000000001
aF9
aF3.4795754748680885
aF1.0937328510973288
aF1.8918768031748407
aF4.0207439544834935
asg5
g6
(g8
S'\xad\x1cz6`{\x10@'
tRp47
sg10
(lp48
F10.496357620216317
aI0
aI0
aF0.87242179824879962
aF6.0525405633861258
aF3.7781930921340412
aF0.70644047615154149
aF7.4446296164312296
aF5.9030684138913951
aF0.86456581733811777
aF4.1494606254263022
aF8.8235430375310386
asg12
I100
sa(dp49
g3
(lp50
F10.81479549870244
aF0.67497444302730969
aI0
aF2.5158334678663019
aF6.4103497729035652
aF3.9164183793206191
aF0.28879458465026109
aF0.42060568836518053
aF3.0918891641586517
aF3.550343849769809
aF4.9303173103309037
aF2.4884181466767901
asg5
g6
(g8
S'\x8cmv \xab\xfa\n@'
tRp51
sg10
(lp52
F10.017147229046872
aI0
aI0
aF1.1845053827915035
aF6.9075060846136491
aF6.974761183496879
aF2.0994908496356199
aF6.9193093546863693
aF2.4205875736532159
aF0.76395812018320941
aF1.978008972875861
aF3.731580685202962
asg12
I100
sa(dp53
g3
(lp54
F10.044344658352955
aI0
aI2
aF1.8093177676465411
aF1.2360468055205422
aF2.3587263340815343
aF5.0345195435936283
aF3.5077988438914876
aF9
aF1.2726448778682662
aF3.1272194917424336
aF6.6700959416100325
asg5
g6
(g8
S'\xach\xf6\xcbxR\x18@'
tRp55
sg10
(lp56
F11.157694840201625
aI2
aI2
aF1.5982048147737786
aF3.8406483034332028
aF3.6623462880789623
aF4.0762171036005288
aF2.609112084552951
aF5.4422443230283832
aF1.8668268102404526
aF0.6258345787482158
aF1.1598350582571806
asg12
I100
sa(dp57
g3
(lp58
F12.322379778862391
aF9
aI1
aI0
aF0.18161935771446558
aF4.2167237625538956
aF1.7002755542674799
aF5.7096648936227385
aI0
aF1.876016675527076
aI0
aF3.0888710236155994
asg5
g6
(g8
S'\xa2\xc3z\x85=H\x03@'
tRp59
sg10
(lp60
F9.0239914839142372
aI2
aI2
aF2.0836585603922289
aF0.48796763947206823
aF0.27184613178649686
aF1.694190904908627
aF5.1366886075242411
aF2.2851225301833402
aF3.4603620813801848
aF6.6699438118082588
aF1.3376765709069669
asg12
I100
sa(dp61
g3
(lp62
F9.9620122229961758
aF1.2876865929114547
aI2
aF1.7583147013265084
aF7.3932134969649894
aF2.6584782840828787
aF5.6666650000000001
aF7.5136143335167258
aF5.4541976950471067
aF4.3862460248820216
aF9
aF2.6449274268950811
asg5
g6
(g8
S'\xb0\x12\x87\xbb\x14L\xea?'
tRp63
sg10
(lp64
F10.284346583408917
aI0
aI0
aF4.3102451726567459
aF8.1953245418759888
aF2.7934384655448738
aF1.5917869373379077
aF3.6650005022898302
aF1.2987268245257675
aF3.489500084913165
aF7.1786831612523416
aF6.3257904109246379
asg12
I100
sa(dp65
g3
(lp66
F9.9718680022287671
aI2
aI1
aF1.2314237189339203
aF9
aF5.3748698713539547
aF0.89400250243517099
aF6.4474214183318974
aF0.15334958855703174
aF1.0021724751357701
aF0.87064307899155702
aF5.1262736645817704
asg5
g6
(g8
S'\xcd\x8cL\xc9\xc9\xb9\x10@'
tRp67
sg10
(lp68
F9.8331353399433468
aI1
aI1
aF1.0890972766304443
aF5.9718237817426694
aF0.98979670454298729
aF0.42295916842616721
aF5.8107119492670893
aF4.2590904460735963
aF3.4555682796477405
aF7.1441579399501522
aF0.23101782331751841
asg12
I100
sa(dp69
g3
(lp70
F9.4107876888853141
aI0
aI0
aF0.39534731591944189
aF9
aF1.1685608991723635
aF5.6666650000000001
aF6.2806054142303651
aF2.4333478752913753
aF5.5380751227440701
aF0.91647915319960149
aF3.0669914472546211
asg5
g6
(g8
S'6\xcc)&\xde5\xf6?'
tRp71
sg10
(lp72
F10.809249311941057
aI1
aI1
aF4.8470914462219872
aF5.3303738169731139
aF0.043381247365227527
aF1.4171127523588991
aF8.9541833535153614
aF0.23001932310190953
aF0.27555938180047884
aF8.3076144756083448
aF2.7279829865670044
asg12
I100
sa(dp73
g3
(lp74
F9.1572380390277281
aI1
aI1
aF1.8108414005002931
aF2.4164413871916528
aF7.1196609057283711
aF1.0802403267859026
aF4.1031896946614212
aF1.867136641207058
aF4.584116404914421
aF7.2362157655449408
aF5.8349760893870126
asg5
g6
(g8
S'\x94*\xdfK\x18|\x04@'
tRp75
sg10
(lp76
F10.261044368881818
aI2
aI2
aF3.4700820125731182
aF6.9774872660492866
aF6.599070808114238
aF2.7920318952216574
aF3.7536470853442259
aF1.3289078882722083
aF1.2259840402327948
aF4.0589491705114797
aF4.4231959455263006
asg12
I100
sa(dp77
g3
(lp78
F4.3933484610839733
aF3.7108266377867629
aI1
aF2.614289869202028
aF4.9351384208015414
aF9
aF4.1307070387595539
aF0.55715689166080473
aF1.5933545498469619
aF0.14717691190009741
aF6.0197158193517293
aF1.5354698723886084
asg5
g6
(g8
S'\x0c\x06\x0e\x0b\xc9\xd8"@'
tRp79
sg10
(lp80
F10.42442491756173
aI2
aI2
aF0.6174731412991572
aF2.8088911500799618
aF4.3640492691905246
aF2.8410283589558261
aF0.63233893972894195
aF0.92125734017876393
aF0.079372121391200215
aF7.4487765398379668
aF6.5826328679730244
asg12
I100
sa(dp81
g3
(lp82
F8.8594602168105645
aF0.13251135780777235
aI2
aF0.16620743857173759
aI0
aF3.8246490443687957
aI0
aF2.6287761166731736
aF7.4640756107465869
aF0.21112017076017806
aF4.674594309431459
aF7.5769082014127918
asg5
g6
(g8
S'\x8e\x9f\xc1\x13f\x13\x16@'
tRp83
sg10
(lp84
F10.552152975147575
aI2
aI2
aF3.3875384264794342
aF1.9680000751889373
aF4.8005100221038663
aF3.8208052056155712
aF7.7684062381656318
aF7.2707881206618907
aF0.067310008612663549
aF5.3964006151367379
aF2.1072593951674312
asg12
I100
sa(dp85
g3
(lp86
F11.036170260575439
aF1.0272836184920033
aI2
aF5.0122372050708037
aF8.0492280798510745
aF5.1731718331781424
aF5.6666650000000001
aF9
aF7.9477985188737641
aF1.530757412881111
aF1.9651448200281463
aF5.12546988975852
asg5
g6
(g8
S'\x17\xda\x11A\x82.\x11@'
tRp87
sg10
(lp88
F11.445986679624379
aI0
aI0
aF4.1795597844586236
aF3.9416042450849744
aF7.8692039184976839
aF0.37203237701091868
aF1.140346562682637
aF6.99764250559166
aF4.7809413069376987
aF6.3870829568886904
aF0.66236439437504258
asg12
I100
sa(dp89
g3
(lp90
F12.33333
aF3.7057694806759227
aI1
aF0.38433383880238275
aF3.9851343693061487
aF4.1842288487479538
aF4.1151959892896093
aF5.9832814121688713
aI0
aI0
aF6.7518025418073586
aF4.373818347203402
asg5
g6
(g8
S'Q5\xca3\xa3\x0e\xfd?'
tRp91
sg10
(lp92
F9.8241809415258263
aI2
aI2
aF5.194466683264662
aF8.3323508455490671
aF0.035260159825195259
aF1.7154381652901471
aF3.7796764911813265
aF0.60558329861970583
aF4.8746013376773494
aF5.2946033215568802
aF1.4990494866594415
asg12
I100
sa(dp93
g3
(lp94
F11.093813474048916
aI1
aI1
aF3.2920283443648994
aF7.9904724666093099
aF4.7743614007651249
aF5.5371434635769239
aF0.040518342067932034
aF0.28402598894733722
aF5.4529279129827115
aF6.2209331739947311
aF7.5121306436725011
asg5
g6
(g8
S'\xd76\x13\xeb\\u\x15@'
tRp95
sg10
(lp96
F9.7814086766756887
aI0
aI0
aF3.5339034220115555
aF0.66803483788532725
aF5.220858694679225
aF3.1709056675113114
aF4.0593496136923521
aF7.6584108972716569
aF3.859285141224122
aF6.6730410186146552
aF5.1667348625218237
asg12
I100
sa(dp97
g3
(lp98
F5.4264202420566141
aF3.466783349671807
aI0
aI0
aF8.4699864620260534
aF7.0430825536833002
aF3.112484173902454
aF3.9744004391165539
aF6.5505793014685594
aF4.7383718258957312
aF6.5957655078444724
aF5.0015580499878194
asg5
g6
(g8
S'\xd5]v\x14p\xcd\x0c@'
tRp99
sg10
(lp100
F9.5444658787666619
aI1
aI1
aF4.748294755826822
aF0.18850065366842927
aF6.549817919258162
aF3.0774535493497392
aF6.7737530755247528
aF6.2593004693465346
aF1.4352739095319849
aF7.5119973398578317
aF2.2686406983012479
asg12
I100
sa(dp101
g3
(lp102
F8.6459416894429832
aF1.568151410524304
aI2
aF3.4943247267720636
aF9
aF6.5041847669732213
aF2.4809908793581679
aF1.2436307409310023
aF9
aI0
aF3.0520606031435089
aF8.7567542924874715
asg5
g6
(g8
S']\xc2\x90\x15fb\x18@'
tRp103
sg10
(lp104
F9.5658549361492469
aI2
aI2
aF3.6027609791775617
aF3.723477830282492
aF6.3083947830844549
aF5.381868698314352
aF7.2044414298819266
aF3.3449647479072944
aF4.6346124771869821
aF4.2213152845976172
aF4.9731640663722665
asg12
I100
sa(dp105
g3
(lp106
F10.749507252337001
aF4.22541638750518
aI2
aF4.4065655668178021
aF7.9427309569878171
aF7.8575653253456812
aF5.6666650000000001
aF4.7364639600187335
aF2.6128217508495601
aF0.97921190945040326
aF1.2997608247630703
aF1.1662450898683168
asg5
g6
(g8
S'\x9b\x01P=\xa5!\x0c@'
tRp107
sg10
(lp108
F9.6179393789021663
aI2
aI2
aF0.0054861753220188216
aF5.3227844785860876
aF3.0828849071156754
aF1.1989525909577989
aF5.1128864755276213
aF2.2848065702095215
aF0.33467815750334418
aF0.16111347474178161
aF4.4301886406972084
asg12
I100
sa(dp109
g3
(lp110
F12.33333
aF9
aI1
aF5.3400099365657958
aF6.7688247518516267
aF1.3873400253046739
aF2.1662763687156352
aF4.2477125408067655
aF8.2234961758115563
aF5.6666650000000001
aI0
aF3.2892427510794073
asg5
g6
(g8
S'\xd2\x9c\xff>\x1e\x0c\x1d@'
tRp111
sg10
(lp112
F9.650896530238958
aI2
aI2
aF4.1442790734015507
aF6.4604232480260704
aF8.8258331444241129
aF4.616984320387524
aF8.1408404860450396
aF6.2427699124946487
aF4.8546600996917766
aF1.1814053121812256
aF2.2147868450550021
asg12
I100
sa(dp113
g3
(lp114
F9.349641127672502
aI0
aI1
aF2.218176359970732
aF1.9121339202943437
aF2.4926263774984809
aF4.7299667940591696
aF2.974850581619346
aF7.3310803840921128
aF4.502462377951856
aF3.5156233931445713
aF7.3066454862313241
asg5
g6
(g8
S'\x88\xf0\xf5xk\x8b\x12@'
tRp115
sg10
(lp116
F9.7852425584559573
aI0
aI0
aF3.5496992216712013
aF2.7142000637705124
aF2.8552635156818402
aF4.9987908462983865
aF5.0803233104600158
aF4.6042673996581867
aF5.0856368510752201
aF3.6515650399986388
aF6.0073684365575541
asg12
I100
sa(dp117
g3
(lp118
F9.983541233482164
aF4.666514051671979
aI1
aI0
aF0.97509087630047742
aF6.8983674746469079
aF1.9658989157431626
aF6.3341549084714259
aF8.4553825380679157
aF5.6666650000000001
aF2.2192617172315057
aF5.7762781235752945
asg5
g6
(g8
S'd\xd3\xf0\xe54\x94 @'
tRp119
sg10
(lp120
F10.428485802547554
aI1
aI1
aF4.6758506269208651
aF8.742884169250102
aF2.5984574864301626
aF2.3783095124980238
aF8.394352335610856
aF0.43660757092748748
aF3.424257539255489
aF1.0631470834872112
aF4.7832467753939936
asg12
I100
sa(dp121
g3
(lp122
F9.8632761832796696
aI0
aI2
aF1.4585894051199764
aF2.3017664877118262
aF1.4001737538063548
aF0.12706782478149686
aF8.8960205980776585
aF2.3089577062980853
aF3.2241236230703176
aF4.9286438594047661
aF5.4612819839912357
asg5
g6
(g8
S'\xfa\x93\xc3$\xe5l\x12@'
tRp123
sg10
(lp124
F11.372228713587976
aI2
aI2
aF0.96090197673840372
aF0.92463020584561384
aF1.631580322023912
aF2.3555376756274251
aF2.0337332748035486
aF3.4270573192998346
aF1.4980906528006357
aF6.998662961740056
aF1.7257464564364131
asg12
I100
sa(dp125
g3
(lp126
F11.874824885243942
aF5.4810449317784631
aI2
aF3.9311596762552976
aF4.825658243478367
aF0.66295138403328779
aF5.2568456895106976
aF9
aF8.356058083141118
aF0.19774295167911671
aF7.2021519732099195
aF9
asg5
g6
(g8
S'\xb0\xe7\xab6\xaek\x18@'
tRp127
sg10
(lp128
F9.7300009641709568
aI0
aI0
aF1.7380005295958081
aF6.8699484211672193
aF3.1016793532680111
aF3.2198779420064869
aF0.2420701017229232
aF6.2100681310666053
aF3.4091544809998005
aF0.68011260223443903
aF1.7467054906374628
asg12
I100
sa(dp129
g3
(lp130
F8.3453692035165403
aF0.47718678580697316
aI2
aF3.1983934215291665
aF0.27585905472096284
aF6.9132876161725072
aF0.5602996155849751
aF5.6996019003310421
aF2.5928436320324879
aF5.4730418928937237
aF5.8046158167295818
aF2.629718664236592
asg5
g6
(g8
S'\xa3%v\x89/\x0e\r@'
tRp131
sg10
(lp132
F10.056575099099968
aI0
aI0
aF2.8964573227666794
aF5.6407389303163322
aF0.07526232323012072
aF3.6012825863617901
aF7.0683273008797318
aF4.7644856952824597
aF5.0756090032261207
aF5.2928258740043477
aF3.376457422787531
asg12
I100
sa(dp133
g3
(lp134
F12.33333
aF3.9165157119868517
aI2
aF3.7275255810905725
aF4.6102255408980559
aI0
aF1.908462543818592
aF2.1598208024084218
aF6.4985599675275019
aI0
aF4.848243352542589
aF9
asg5
g6
(g8
S'\xf1\x90\xdfQp\xe9\x02@'
tRp135
sg10
(lp136
F10.225733522709181
aI1
aI1
aF4.5574774459932099
aF3.0794365142021847
aF0.22251845848703067
aF1.8399933497443959
aF6.0727394146297478
aF8.161278887408951
aF4.6389469471859064
aF2.5750002054090086
aF2.4930164375594437
asg12
I100
sa(dp137
g3
(lp138
F8.9223561985955104
aF2.2616999068272499
aI2
aF5.6666650000000001
aF0.86847225599576572
aF4.9572072959399902
aI0
aF0.78743345592216452
aF2.8982292434939652
aF3.9113524298756102
aF1.8735906205502566
aF4.5385896478966083
asg5
g6
(g8
S';\x86_\x136\x12\x15@'
tRp139
sg10
(lp140
F9.4373710182896957
aI1
aI1
aF0.88019174263972111
aF1.4864605666562509
aF1.76907827590265
aF0.88995658375585507
aF2.1719006976646869
aF8.8434393318112967
aF4.7765160007776579
aF2.6646882287282176
aF4.7356273780158222
asg12
I100
sa(dp141
g3
(lp142
F9.7920929217398207
aF2.727259244391222
aI1
aF5.6666650000000001
aF1.3279706547995513
aF0.16252611459317537
aF1.1089208092983527
aF5.4807117196218993
aF2.4180106701634481
aF5.6666650000000001
aF4.911422663489609
aF2.7461911406678801
asg5
g6
(g8
S'n2\xcb\xfd\xf4\xaa\x08@'
tRp143
sg10
(lp144
F9.2722027415155459
aI1
aI1
aF5.3560376884839513
aF3.4281813944956205
aF3.5693170872390785
aF4.1514320115040837
aF5.1514023631233243
aF2.7955018657821573
aF2.7743756265775952
aF4.573424128157674
aF1.1375592209413199
asg12
I100
sa(dp145
g3
(lp146
F8.9937864279625792
aF1.3003384315469164
aI0
aF0.24461129585775732
aF5.3619952164966858
aF7.7057077111887464
aF5.6659619830463237
aF1.8989523302394797
aF2.4708506492627715
aF3.8240689581222256
aF7.4053697520308486
aF6.8526400766838069
asg5
g6
(g8
S'\xa5\x91\xa2\xe5\xf1\x13\x16@'
tRp147
sg10
(lp148
F10.483544267852729
aI1
aI1
aF2.6039385658673417
aF2.9222677947867157
aF3.6073772013573948
aF5.0207512879647922
aF2.8480360183185955
aF6.5510964078186538
aF5.59932683125382
aF5.1912194808020722
aF8.6270178692494035
asg12
I100
sa(dp149
g3
(lp150
F9.8524447770284276
aF2.0551905459834918
aI2
aF3.200952953600356
aF6.1348741302989671
aF5.2094066395852545
aF3.4496988013013334
aF2.749064023060459
aF9
aF4.435256133956309
aI0
aF8.8906297935461058
asg5
g6
(g8
S'\xcd\xd4%\xa4\xb7r\x17@'
tRp151
sg10
(lp152
F9.9430602963818284
aI1
aI1
aF2.8553862857037231
aF1.3457544214232198
aF5.0630779039232996
aF5.6096218149107342
aF1.2786269338438183
aF3.2915800144274225
aF5.5956964304060639
aF7.5641049363256885
aF4.3766940406760284
asg12
I100
sa(dp153
g3
(lp154
F12.33333
aF4.913553806859559
aI1
aF5.298703390903551
aF9
aF3.2955231575205004
aF5.6666650000000001
aF3.4104120421045732
aF4.8084581242599702
aF5.6666650000000001
aF9
aF2.9474404469468718
asg5
g6
(g8
S'\xce\x9c\xa6\xbf<p\x0b@'
tRp155
sg10
(lp156
F8.9315560372981331
aI0
aI0
aF4.6026218010620479
aF4.958419258547158
aF7.6781335200946552
aF1.4253457921107011
aF5.3825697978751466
aF5.8324170682927789
aF1.8261033609853481
aF7.326426098554828
aF6.3537243911067458
asg12
I100
sa(dp157
g3
(lp158
F11.286880011135191
aF3.1073870369383334
aI1
aF5.6666650000000001
aF2.8720085489173988
aF4.2046982289004182
aF4.2047412731122646
aF5.826694670575888
aF7.6148682683643951
aF3.4375064613454378
aF5.9986187982274561
aF3.7248965209013072
asg5
g6
(g8
S'\xe7\xc5\xaa\xf0\x87U\x16@'
tRp159
sg10
(lp160
F10.081245328965597
aI1
aI1
aF3.8875199822455166
aF3.893530390182657
aF7.7500666563826988
aF0.3670313490308405
aF6.7563578826718409
aF3.6672771397566373
aF4.8012993559347503
aF5.3337226667221396
aF2.8526656337742624
asg12
I100
sa(dp161
g3
(lp162
F12.33333
aF4.2539622735384013
aI0
aF5.6666650000000001
aF6.4924956883394227
aF9
aF5.6666650000000001
aF7.5652331148690219
aF3.0079564739801308
aF5.6666650000000001
aI0
aF3.203464275088312
asg5
g6
(g8
S'0\xaf\xc5X\xaf\x06\x0c@'
tRp163
sg10
(lp164
F9.5271751672624223
aI1
aI1
aF5.0237170932501041
aF0.10771656749393388
aF6.8321071396841555
aF3.7347864934765092
aF5.9012643517980203
aF6.1379813869041282
aF2.3174341220363144
aF4.7110731804085626
aF7.5503120709978022
asg12
I100
sa(dp165
g3
(lp166
F8.2973681714653491
aF1.3183162010684266
aI0
aF1.7155230937324641
aF4.6370882293462792
aF2.7155398969624409
aI0
aI0
aF9
aF4.270391181452549
aF3.896183603016476
aF2.8771073464986188
asg5
g6
(g8
S'\xddj\xee\n\x1e\xdf\x03@'
tRp167
sg10
(lp168
F8.732660826961494
aI1
aI1
aF3.1353773716986262
aF2.1337615774766272
aF5.1803451685854185
aF1.8612712301106651
aF5.477594434866055
aF5.0484103813584467
aF2.8515851926239901
aF2.1750543638818605
aF8.7964398569675275
asg12
I100
sa(dp169
g3
(lp170
F11.380475321184628
aF9
aI1
aF1.9157878295046626
aF5.6159777667101096
aI0
aF3.0695675562223674
aF3.9627316315638899
aF3.9853657617555736
aF0.34747166225006026
aF5.2555324923709659
aF3.2177177613053232
asg5
g6
(g8
S'X\x16\x8a]ha\x14@'
tRp171
sg10
(lp172
F11.059023576791585
aI1
aI1
aF0.61041789796040924
aF2.0982213542321682
aF5.8494449217461035
aF1.6984266691172836
aF6.9654949765981709
aF0.10417000326686676
aF0.48227626560799575
aF0.58937974349502897
aF7.6539286506621735
asg12
I100
sa(dp173
g3
(lp174
F10.253309402728849
aF0.67311024682660614
aI1
aF2.0966076079664844
aI0
aF6.4005571159346255
aF5.6666650000000001
aF6.2449663638440249
aI0
aF1.5339750761681898
aF3.3618699597520108
aF6.3096673455388199
asg5
g6
(g8
S'\x95B\xac0\xcc\x83\x03@'
tRp175
sg10
(lp176
F10.184947688433985
aI1
aI1
aF4.583147555833353
aF1.8254930735366428
aF2.4380912115258386
aF5.2437176531245671
aF7.3331183872175396
aF2.1418426981505889
aF3.1975039802896594
aF5.5182216693677848
aF0.4592046281638289
asg12
I100
sa(dp177
g3
(lp178
F10.144721035585862
aF0.92896708965299113
aI2
aF0.2495870678051875
aF4.3372252277880854
aF5.4801340491497381
aF5.6666650000000001
aF0.93186752160476094
aF5.6927360934954105
aI0
aF1.9827510616346926
aF7.8015175656635503
asg5
g6
(g8
S"\xb8;L'\xd1\xe9\xff?"
tRp179
sg10
(lp180
F10.202375973114874
aI0
aI0
aF1.4957367105407053
aF1.8418152444270903
aF6.4895438469689788
aF4.4476533763106332
aF5.6742898832298607
aF2.9540260948141484
aF3.1717343296610356
aF6.655665039839926
aF7.6008373704989438
asg12
I100
sa(dp181
g3
(lp182
F8.8359919859611509
aF0.72122643108188189
aI0
aF2.3702250893827301
aF8.0946755454389603
aF6.1713768140839784
aF0.15857392780836044
aF3.0073740467509706
aF4.5651104973788073
aF3.4661007199824985
aF0.60021231343261672
aF9
asg5
g6
(g8
S'\xa3AW!\x7f\xfd\x00@'
tRp183
sg10
(lp184
F9.9572254613100863
aI1
aI1
aF1.3129941294672147
aF1.8926059577269116
aF4.9410552358124846
aF1.5793180801319509
aF8.6331371581122944
aF8.0674139049100209
aF0.06103019176467659
aF0.30415249112919807
aF4.5732070642614921
asg12
I100
sa(dp185
g3
(lp186
F10.035154242301529
aF1.1210894099869535
aI1
aF4.6832553565814399
aF3.502848677513418
aF4.0735522295179205
aF2.8058777152824423
aF5.6373150321006351
aF6.3783791322482584
aF0.0030158862502211357
aF1.8945915379454128
aF5.6799168746158433
asg5
g6
(g8
S'D8]\xa9\xca\\\x06@'
tRp187
sg10
(lp188
F8.7030026540484329
aI1
aI1
aF5.5171516970035501
aF6.5186554924164879
aF5.9756577104662156
aF2.4179731300670828
aF3.8687875826696385
aF8.5080715662595274
aF3.8043842137665935
aF4.4256693429968168
aF0.95178512774732005
asg12
I100
sa(dp189
g3
(lp190
F9.8187366859952991
aF0.41835887368599373
aI2
aF2.1808836701036451
aF3.9909037413830646
aF5.300030093218524
aF0.24692769184508556
aF8.3143863309555002
aF7.456412036378997
aF2.6018476293258468
aF8.4281030660503884
aF7.7616745740216526
asg5
g6
(g8
S'\xf3\x8a\x9e\xb7L\xab\x19@'
tRp191
sg10
(lp192
F9.5779267946673912
aI0
aI0
aF2.7878644437896094
aF7.7726584891358064
aF1.3806609494358781
aF3.5411037178725988
aF1.1885848600287812
aF6.536949725238772
aF3.5215258420902806
aF2.7076398368015457
aF8.7291496440437317
asg12
I100
sa(dp193
g3
(lp194
F8.8617219229241542
aF1.4610187927054661
aI0
aI0
aF8.1627568411170515
aF3.0837914459254674
aF5.6666650000000001
aF3.6349426197064068
aF7.5161233430683234
aF5.6666650000000001
aF4.8074497911695122
aF0.94218220345447978
asg5
g6
(g8
S':{\x94\xda\xf8\x14\x04@'
tRp195
sg10
(lp196
F10.734782409428217
aI2
aI2
aF4.5541586257162967
aF0.21344177925495678
aF8.8883343764180722
aF2.0332896594263326
aF3.3224276660117109
aF4.6624197363665578
aF1.4962374863764947
aF7.4190859161422251
aF1.2104166347875593
asg12
I100
sa(dp197
g3
(lp198
F10.953596227480126
aI0
aI1
aF1.0288993754057181
aF2.4444276685210227
aF1.1782922428419147
aF4.9827387156659526
aF7.7202259360570658
aF1.0136056260927111
aF1.7755768939058825
aF1.9170095626895571
aI0
asg5
g6
(g8
S'\xcaW\xf2\xc7@\r\xf3?'
tRp199
sg10
(lp200
F10.935108949157726
aI0
aI0
aF5.0912742555765274
aF6.6225394045724792
aF0.56510188734847455
aF3.5220920249449144
aF8.472485770688543
aF1.0466686526355784
aF2.6859268143477815
aF1.6165629948522731
aF2.486831691442239
asg12
I100
sa(dp201
g3
(lp202
F9.7309647382478719
aF1.9035469065210875
aI1
aI0
aF3.1200303275932102
aF5.2882413678946287
aF1.3469022521327998
aF4.7826624273664606
aF3.8569684725681919
aF2.8472800559139935
aF2.5731095352343587
aF4.401539208555139
asg5
g6
(g8
S'\xe0\xec \xb2<\xcc\x11@'
tRp203
sg10
(lp204
F9.955393699935728
aI1
aI1
aF3.6993043583474399
aF7.875011920502641
aF0.39622798608243914
aF5.1893889840317557
aF6.9675597429321341
aF4.3660139367617194
aF1.0494712805592383
aF0.92040123463754875
aF6.6741004710242162
asg12
I100
sa(dp205
g3
(lp206
F12.33333
aF6.3889795331094534
aI0
aF2.2205408135920246
aF2.9362091800153531
aF0.80550130242213613
aF4.3023770348412462
aF4.7067261238141649
aF1.7791249545052126
aF3.215692853931321
aF7.4463749116752238
aF6.7227346866123909
asg5
g6
(g8
S'm\x86F\xfb\xb6\xa4\xf5?'
tRp207
sg10
(lp208
F9.879204462334366
aI1
aI1
aF2.2109976267980183
aF5.3118682041979506
aF5.8382783951976807
aF1.0522403703055734
aF2.2726892808126471
aF0.96250261686078464
aF5.5546430939087204
aF2.5237974737162778
aF0.73497506539576962
asg12
I100
sa(dp209
g3
(lp210
F9.0567257738662477
aF1.1245018505530229
aI2
aF0.87628061739719731
aF2.8107178656224923
aF9
aF4.8362469309199767
aF6.4568306582224286
aF7.6906268064530341
aF1.880007828828596
aF5.9500874852795418
aF8.4449779885153315
asg5
g6
(g8
S'?\xdf\x90\xe8v\xb5\n@'
tRp211
sg10
(lp212
F8.3808205733398005
aI0
aI0
aF5.1566513968916361
aF6.2007059536778106
aF7.85583847003317
aF1.8624495866815152
aF0.11274946147039033
aF5.9630740679919612
aF5.3467038627870327
aF8.9201634483151899
aF8.1047152484141041
asg12
I100
sa(dp213
g3
(lp214
F6.4781153437556984
aF0.15231046976513474
aI1
aF2.1001572803157664
aI0
aF6.4074725574119675
aI0
aF2.0454729571548227
aF5.827675113384938
aF1.8952517566009011
aF7.9446376922403852
aF5.2071303152459354
asg5
g6
(g8
S'\xc5k\xaa\x99\xf4\x7f\x08@'
tRp215
sg10
(lp216
F9.2357269995014519
aI2
aI2
aF2.177621572209163
aF3.3976805062904614
aF2.78182413118259
aF0.70388152085676581
aF5.8327072995602682
aF8.2831317745794895
aF1.2353430872429734
aF0.58317699336534135
aF3.4371958635400461
asg12
I100
sa(dp217
g3
(lp218
F10.731364466223994
aI0
aI2
aF1.0113533110656001
aF3.8128579670389948
aF3.2136336314007949
aF4.4520724406650469
aF4.9188327213441081
aF8.8047175701551321
aF0.27945431666445197
aF4.9038717136933077
aF8.0620778796227999
asg5
g6
(g8
S'\x85\x92\xb8\xa2\x08L\x12@'
tRp219
sg10
(lp220
F10.509684658140914
aI0
aI0
aF0.66385996312938189
aF5.301325549191362
aF3.5213685416214688
aF0.79200056037257094
aF4.2093842905266685
aF3.8082563497370865
aF3.2433245188647661
aF8.4528864950732068
aF5.1399138379890923
asg12
I100
sa(dp221
g3
(lp222
F9.6866553209946016
aI0
aI0
aF2.9523866340566896
aF3.3176697445292156
aF3.8912504001661672
aF5.131103370197776
aF4.8349338978373781
aF7.7184373495279921
aF1.4467647287449232
aF0.37458545173061286
aF3.268123446671896
asg5
g6
(g8
S'\xd1\x9e\x90\xfcA\x0e\x08@'
tRp223
sg10
(lp224
F10.010459024394045
aI0
aI0
aF1.1124451794165202
aF3.6790350590094678
aF1.5405377845744155
aF3.3641417791833601
aF2.3782517042788678
aF3.61216805644613
aF4.6142601741995977
aF3.8469838018039861
aF8.4970367958248829
asg12
I100
sa(dp225
g3
(lp226
F10.369091360837865
aF0.98541561338814909
aI0
aF3.2773604275196258
aF3.4711639874716962
aF4.5295668579621964
aF1.5361657181175574
aF3.4311160300327241
aF1.8142195025808479
aF4.6952356407035438
aF6.6782187553836128
aF4.8389905452506161
asg5
g6
(g8
S'\xb7\xdd\x92\x87\x13\xa2\x02@'
tRp227
sg10
(lp228
F9.0676169598909873
aI1
aI1
aF2.378151643552266
aF3.8363922921360301
aF1.5845797611284538
aF3.2871811520500831
aF3.0236505535586953
aF2.2438453337037805
aF4.7312193977057317
aF8.7084458615823159
aF5.0673494823482628
asg12
I100
sa(dp229
g3
(lp230
F8.8557854765665045
aF8.3382165632439484
aI0
aF2.2447823045534419
aF8.8480231935301052
aF9
aI0
aF3.0497118373346814
aF4.2655598812976478
aF4.2992210616685211
aF4.662794698383296
aF0.75617841304452882
asg5
g6
(g8
S'\x84\xb6\x8b=F\xa6\x16@'
tRp231
sg10
(lp232
F11.848979961341005
aI0
aI0
aF2.0530346265042816
aF4.193264001572877
aF5.7814651443197578
aF0.23846285182676172
aF7.7072097197253475
aF2.8759137578278127
aF4.541818784225252
aF5.9018960509131304
aF0.59400844399120778
asg12
I100
sa(dp233
g3
(lp234
F8.0456518206067908
aF2.6166505844619188
aI1
aF5.6666650000000001
aF7.7259514980367898
aF0.50216617701674882
aI0
aF5.0689349150987271
aF9
aF2.6334456126768666
aF1.9017735237287834
aI0
asg5
g6
(g8
S'%T\x8aQ\x94\xc3\x18@'
tRp235
sg10
(lp236
F10.24081948932511
aI1
aI1
aF2.1761255006585656
aF1.4347111345857568
aF0.73791095784549798
aF5.3834774239925336
aF7.5299479839561041
aF7.1861613892941341
aF4.7843045342282275
aF7.8986650898127815
aF6.9553716003514898
asg12
I100
sa(dp237
g3
(lp238
F8.8802080000135941
aF0.50611886269351769
aI0
aF1.2304179800997019
aF3.3163693084659869
aF6.3893458672220254
aI0
aF0.52812892741343775
aF9
aF2.760762094202418
aF8.6948900651647367
aF3.869299123596122
asg5
g6
(g8
S'\xff\x17z\xb2\xcd\xcf\xf8?'
tRp239
sg10
(lp240
F10.272126126623828
aI2
aI2
aF2.0950255825591126
aF2.3110607692838627
aF6.6216190218473132
aF2.179908701149865
aF5.8635035487921154
aF1.4619942325769884
aF1.6382268553721058
aF3.4769482120631148
aF4.901837872326535
asg12
I100
sa(dp241
g3
(lp242
F8.9933977869988571
aF0.75714251299219892
aI0
aF1.3775258243275699
aF3.0138270995799066
aF5.3987628313636655
aF5.6666650000000001
aI0
aF6.2567283803206024
aI0
aF4.5906795575148767
aF3.7231286589548187
asg5
g6
(g8
S'\x01\xee\xd6E\t\xaa\x0e@'
tRp243
sg10
(lp244
F8.3695087759443112
aI1
aI1
aF4.1293994984080449
aF4.5773810134113484
aF7.0003983924779076
aF2.8129189795592611
aF3.0177950507752298
aF1.8446503934782994
aF3.1745945322795954
aF4.3295178241251087
aF8.8132746951336838
asg12
I100
sa(dp245
g3
(lp246
F9.2642645216298867
aF2.8401391395348301
aI1
aF1.1422441165281545
aF5.3089787453086732
aF6.0524891060189185
aF2.439912448401278
aF2.8689445027919662
aF9
aF5.6666650000000001
aF4.0342578399127937
aF1.6759187295924343
asg5
g6
(g8
S'\xbf%\xa5p\xf0\x99\x12@'
tRp247
sg10
(lp248
F8.6043773274741469
aI1
aI1
aF3.8728279361528664
aF2.8469019799746929
aF6.4335103504414235
aF3.4983067715447058
aF4.8878242010494919
aF4.9466671581973483
aF4.9433086995472948
aF4.8432902242281486
aF6.6019534859233842
asg12
I100
sa(dp249
g3
(lp250
F12.33333
aF1.9625067214923217
aI0
aF5.6666650000000001
aF7.1700007206005134
aF7.6339047134784472
aF5.6666650000000001
aF6.6002078381129925
aF0.30715326872178395
aF2.2428279914905564
aF2.8367356467369422
aF3.5784704943245158
asg5
g6
(g8
S'\x9e\xf9\x87\x9cf\xfa\x0c@'
tRp251
sg10
(lp252
F9.9478207166427772
aI1
aI1
aF5.0161374841632789
aF6.6339129759302233
aF8.6575647274021144
aF2.512955213066586
aF7.605903129229036
aF5.9062141017686427
aF5.4518134644148146
aF2.8622927147003852
aF8.5019484527143732
asg12
I100
sa(dp253
g3
(lp254
F8.5311263793073131
aF3.2479823290159877
aI2
aF3.7388482361709245
aF3.1485449203584137
aF5.7189292296439458
aF5.6666650000000001
aF0.52438947081207932
aF6.3035035200661476
aF1.3439139400934308
aI0
aF6.3378660037445371
asg5
g6
(g8
S'\x06\x1a\xb6.\x13\x88\x0b@'
tRp255
sg10
(lp256
F8.9816235619090552
aI2
aI2
aF3.1644898277272602
aF0.05819026602332289
aF5.4069681865331427
aF2.6592336595325246
aF3.0415761079110171
aF6.5611847682446394
aF4.4337478096773717
aF0.91382563507375003
aF5.1289912493259875
asg12
I100
sa(dp257
g3
(lp258
F10.462745986895385
aF0.79749302717794979
aI0
aF5.6666650000000001
aF6.532966111525881
aF5.7770794875703544
aI0
aI0
aF5.7510357797176583
aF4.8648576117570741
aF7.699493533646903
aF1.8645493781015017
asg5
g6
(g8
S'\x88I\xe9\xdf\xe4&\xfb?'
tRp259
sg10
(lp260
F10.80484730253761
aI1
aI1
aF3.7855754566297324
aF5.4625835724978629
aF3.8558543520429587
aF5.4164631538650942
aF7.2230270981336195
aF7.3071151049386271
aF1.7869275079889133
aF7.5141822418072355
aF5.2458449731636545
asg12
I100
sa(dp261
g3
(lp262
F9.85019251906661
aF4.9568844898618405
aI2
aF3.6966925066531662
aF4.3845904960738746
aF9
aF0.34341601250086495
aF9
aF6.83189626711507
aF0.69065670117460987
aF2.3210862970274158
aF1.3837488193598464
asg5
g6
(g8
S'R\x84\xd1\xc48\t\xfb?'
tRp263
sg10
(lp264
F9.1241481391221608
aI2
aI2
aF1.9322798999696391
aF1.3557176973818694
aF8.3059411623437853
aF2.7511936216726789
aF7.8496726272787365
aF2.4649589226667108
aF0.40411633677287756
aF1.0836693483472422
aF2.4981785946305273
asg12
I100
sa(dp265
g3
(lp266
F10.133547284923997
aF1.262365895273214
aI1
aI0
aF4.5716074999479321
aF5.8348832343952877
aF1.9730800784719384
aF1.6600322809168195
aF0.67915444417901172
aF5.5036738526963029
aF3.6429817366078963
aI0
asg5
g6
(g8
S"?'\xac\x1a\x10\x95\x0e@"
tRp267
sg10
(lp268
F10.086224056919033
aI1
aI1
aF3.0401901570205792
aF2.9651981228243542
aF0.23390799192232248
aF5.1747973488789754
aF1.6889965596809402
aF2.7676586604459574
aF3.1569357115092358
aF3.3323113861374392
aF2.1690837390903508
asg12
I100
sa(dp269
g3
(lp270
F12.33333
aF2.4168065359546436
aI2
aF2.4291736825503225
aI0
aF5.2528505845301208
aF5.6666650000000001
aF2.1499815746692938
aF2.3141258494188803
aF3.6023606875435799
aF7.4100726895672686
aF2.1597097030182923
asg5
g6
(g8
S'\xc1\x18\xa3\x95\xab.\xfa?'
tRp271
sg10
(lp272
F11.717785271817899
aI2
aI2
aF2.0032519765323777
aF5.3211819748520863
aF7.0305757469968073
aF0.85894854648106123
aF0.032794837412997158
aF2.8606609682517075
aF2.7740623451644235
aF7.5564046687840722
aF3.563381485562882
asg12
I100
sa(dp273
g3
(lp274
F9.7126391554272935
aF1.6813886410053023
aI1
aF5.6666650000000001
aF8.4568424693137896
aF8.1475983803919494
aF2.0104040622231163
aF1.2283242468393436
aF2.5865198337095219
aF3.5721087480057743
aF8.1958891644741332
aF4.0742794656220775
asg5
g6
(g8
S'\xcc\xdf)\x8aB\xb3\x12@'
tRp275
sg10
(lp276
F11.136714205906371
aI1
aI1
aF3.9640470698027341
aF0.22619646831397544
aF1.764294579170679
aF5.1860890584723025
aF4.2999748249700778
aF4.1149699184217052
aF4.0608569163963626
aF6.2470529813520947
aF8.6280884850555477
asg12
I100
sa(dp277
g3
(lp278
F9.215876326232781
aF2.6100185245943872
aI1
aF3.0162301087846162
aF4.2307186512856054
aI0
aF0.18030415464022237
aF3.4679790381845086
aF4.8710427872018993
aF5.6666650000000001
aF4.9957060739608705
aF4.7613574240787262
asg5
g6
(g8
S'\xcb\xb8"6\xc0\\\x1a@'
tRp279
sg10
(lp280
F9.4722595571640298
aI1
aI1
aF3.2426510796936916
aF1.4059238425459921
aF4.2466384355082134
aF4.8187550154912477
aF6.3853677145530474
aF8.5329168747117361
aF0.3280630456871198
aF8.0748246805367412
aF4.3984499993256652
asg12
I100
sa(dp281
g3
(lp282
F9.8929171486777765
aI0
aI0
aF3.4907979590477112
aF4.8878955357024356
aF8.5142194428061693
aF0.97469383113143904
aF9
aF1.7117180518011947
aF5.6666650000000001
aF4.3716196636091436
aF7.9476482207211454
asg5
g6
(g8
S'-\xd1\xc4\xe29Z!@'
tRp283
sg10
(lp284
F9.2812301888557034
aI0
aI0
aF4.8648646191429483
aF7.5510397447838224
aF0.37195641196910934
aF1.4475557410094932
aF5.2355326498702173
aF3.1902632516124241
aF1.1914639891706342
aF8.2632583794464285
aF0.85789608181867438
asg12
I100
sa(dp285
g3
(lp286
F12.33333
aF4.0055623401739986
aI1
aF3.9785908068094207
aF9
aF9
aF2.2889852396798154
aF7.5438312407761297
aF4.372800636008237
aF5.1215659885271494
aF2.9618081773522871
aF7.1943747202958841
asg5
g6
(g8
S'r]A\x89\xe8\xd9\x02@'
tRp287
sg10
(lp288
F10.255693019595745
aI1
aI1
aF2.3445077325394759
aF2.4628622587775975
aF4.2311833634553064
aF4.1048167374858497
aF7.9495513068861454
aF5.8187504252049074
aF0.50746923499851926
aF0.68300219960588648
aF7.7260992032957176
asg12
I100
sa(dp289
g3
(lp290
F12.33333
aF3.8880223841922352
aI1
aF3.4488560398027164
aF5.2571643989114634
aF7.6823760341390033
aF2.0120506282459556
aF3.839239100359626
aF0.12338097565236894
aF3.6670897923318155
aF8.9618386946743875
aF5.4755579660194851
asg5
g6
(g8
S'vk\xcfLg\xb0\x1a@'
tRp291
sg10
(lp292
F9.8552956244829684
aI0
aI0
aF1.9504447125482589
aF5.9246963622464914
aF6.4610656559918631
aF0.011528075185628522
aF6.4346602874559888
aF3.1067538389457363
aF3.878097959755614
aF0.22092251240156524
aF2.3707121082106264
asg12
I100
sa(dp293
g3
(lp294
F10.066193989273607
aF6.2421640487342209
aI2
aF5.6666650000000001
aF1.9175732572155471
aF7.6736579660141482
aF1.3708616832260676
aF2.8593704822716868
aF2.0194593864853108
aF4.3827893877057322
aF5.5963689456240964
aF1.0780316032355988
asg5
g6
(g8
S'\xae\x86X\xd3 3\x15@'
tRp295
sg10
(lp296
F8.9949094978211939
aI1
aI1
aF1.0092396299927799
aF5.2648677560923192
aF5.934039639193136
aF1.7162721506544698
aF6.1985110255157148
aF5.6185566566204646
aF2.8142551942347094
aF3.3998086585853824
aF0.93133271948947982
asg12
I100
sa(dp297
g3
(lp298
F9.9055158820539511
aI0
aI2
aF5.6666650000000001
aF1.7990861015490875
aF3.1276073723010884
aF0.59404826687432555
aF8.1168182533018296
aF8.6432564580228508
aF3.3411113263794712
aF7.6210975889601826
aF2.2562112791623079
asg5
g6
(g8
S'F\xbb\xcf\xdc _\x00@'
tRp299
sg10
(lp300
F9.2549210558499766
aI0
aI0
aF2.163851730383251
aF7.0367493076645911
aF3.8248259777979019
aF4.2188058853552421
aF3.2023098797161089
aF5.4780545452781855
aF1.4568270690921437
aF8.0910195476801761
aF4.4660642493025087
asg12
I100
sa(dp301
g3
(lp302
F9.4312554525465142
aI0
aI0
aI0
aF7.4377844011696395
aF3.8958687870416049
aF5.6666650000000001
aF7.9558768427959761
aF6.9760670575092583
aF3.4182642429022927
aF7.512686001122332
aF5.7728683865194332
asg5
g6
(g8
S'\xaf\xbb\xe18rE\x11@'
tRp303
sg10
(lp304
F9.5948677182508675
aI0
aI0
aF4.0561479393192466
aF7.8128425560294072
aF5.327843710403517
aF1.5850918586945941
aF8.1967355103383497
aF4.6492003364136592
aF1.1568995366056938
aF6.6966709865771934
aF6.6011159364265231
asg12
I100
sa(dp305
g3
(lp306
F9.7632124239163964
aF3.4437839694719163
aI0
aF3.7766780710801551
aF5.1495716310883903
aF3.8249206871162453
aF3.8289441971297808
aF9
aF7.1766594183677546
aF3.9710975236543145
aF1.7113669020406412
aF4.6203896362813675
asg5
g6
(g8
S'\xdc\xb7O\x9d+\xad\x11@'
tRp307
sg10
(lp308
F11.424062769413666
aI1
aI1
aF0.78379996354905779
aF6.8213777839559775
aF6.0646004080588201
aF1.5742792386268478
aF1.453879553590236
aF2.8150456614370878
aF5.6441956791506254
aF5.9482653785334803
aF3.6063251743752569
asg12
I100
sa(dp309
g3
(lp310
F9.9238984815098537
aF4.4546399638483374
aI2
aF3.2467512300544739
aF3.92452648816744
aF2.2422049768180541
aF3.323940563214451
aF8.3110645355127737
aF1.877997098776407
aF2.0267837366423023
aF8.2085530091481989
aF9
asg5
g6
(g8
S'\xae\xf9&\x9dg\xab\x1b@'
tRp311
sg10
(lp312
F11.901228235047615
aI1
aI1
aF3.7576878003527221
aF2.9625561450068321
aF4.7827580517898509
aF0.50156630917095257
aF2.3591770135983867
aF5.6371498250506979
aF5.584653697151496
aF5.0067239359091618
aF3.5176911852191655
asg12
I100
sa(dp313
g3
(lp314
F5.780661274581103
aF6.7438272582503505
aI0
aF2.6894153239640817
aI0
aF3.9727442019449497
aF5.6666650000000001
aF2.445442509764356
aF9
aF5.3069650952684242
aF5.959878642912356
aI0
asg5
g6
(g8
S'\xef\xf6zE+W\x12@'
tRp315
sg10
(lp316
F8.7489495162892688
aI1
aI1
aF2.2060032620733292
aF6.8174889074374381
aF0.74577872392242206
aF4.2832465132977884
aF4.0076562408116922
aF5.5289492255414689
aF5.4881167720987465
aF7.8329288911203792
aF3.1194615554480478
asg12
I100
sa(dp317
g3
(lp318
F10.461740044197795
aI0
aI1
aI0
aF8.7099243096139549
aF8.9020819268429392
aF3.053795179316142
aF0.83309961050527459
aF9
aF3.9494873964204444
aF6.9919216611041071
aF5.3439816449969024
asg5
g6
(g8
S'P\xb0\xc8\xc6\xf0\xb0\x06@'
tRp319
sg10
(lp320
F9.8650062166678509
aI0
aI0
aF0.25094131268731268
aF0.48236918886284319
aF8.7428135556450997
aF2.981738335438985
aF1.8040741387239239
aF5.6208859863501468
aF1.9667951828939274
aF5.4696995060105982
aF5.177230864987882
asg12
I100
sa(dp321
g3
(lp322
F10.952935316815122
aF5.0630798862923703
aI0
aF2.8437829451982521
aI0
aF7.8948685234951288
aF0.099071097049544532
aF1.8018612744166553
aF3.6711564470711577
aF2.2249101722756706
aF1.7247429191694761
aF6.8630344951659907
asg5
g6
(g8
S'\x98\xfa)\x18\xbe\x06\r@'
tRp323
sg10
(lp324
F10.268836119594514
aI0
aI0
aF2.4207128856603632
aF3.5822308920469439
aF8.2861974288462648
aF2.7909572590415528
aF4.1949085574915248
aF7.8424182922557391
aF4.3223776682905735
aF2.9855238512949125
aF1.3469435835461878
asg12
I100
sa(dp325
g3
(lp326
F10.132623047928874
aI0
aI1
aF1.7555214767465739
aF0.86009989027176803
aF4.0706180782351646
aI0
aF4.8468295104389121
aF5.1188110908930637
aF3.6988365900560773
aF9
aF2.5739738683585971
asg5
g6
(g8
S'\\\x08\x154\xccx\x06@'
tRp327
sg10
(lp328
F11.535257327857165
aI1
aI1
aF2.7363671437249395
aF5.6178551912059422
aF2.9312766293079373
aF2.7981073565384076
aF4.8228306038899653
aF4.8730345654982221
aF2.5878722672834256
aF3.9369866931245672
aF5.0732186898054934
asg12
I100
sa(dp329
g3
(lp330
F3.2419082731593885
aF7.6324072084332055
aI1
aF5.6666650000000001
aF2.7700128225622294
aI0
aF2.4971908363832491
aF4.0881011926581623
aF1.7941260186600236
aF4.1939611697821988
aF9
aF3.4312222238512611
asg5
g6
(g8
S'\xfb\x9b\xce\xf4\xef\xf9\x06@'
tRp331
sg10
(lp332
F9.2585978915077067
aI2
aI2
aF0.052753354110860941
aF6.1880846451418376
aF7.3984073665258077
aF3.3721647580368548
aF0.082858089223261433
aF8.273699245968789
aF4.290302247207987
aF1.9405383638762126
aF1.1450208889636091
asg12
I100
sa(dp333
g3
(lp334
F10.223755212958826
aF3.3523381462264732
aI2
aF2.5553925807399249
aF2.1030650538352971
aF8.5062366697534326
aF4.1615520138956592
aF6.3302198041345346
aF1.7080238865271413
aI0
aF5.9773424229310166
aF1.0108157636599306
asg5
g6
(g8
S'{\x05O2\xa0\xce\x1a@'
tRp335
sg10
(lp336
F8.1149384624439804
aI1
aI1
aF1.0379835471748031
aF2.3138741846246296
aF4.1140939365252054
aF0.98577457864505713
aF7.6626645599173457
aF7.4218868781489933
aF1.1044254792844308
aF7.034063078304813
aF1.377908066202727
asg12
I100
sa(dp337
g3
(lp338
F8.6667768242641774
aF3.2231821396436815
aI0
aF4.030821251211834
aF2.7410055034369081
aF3.8275290335486822
aF0.18358417535040039
aF3.2870375962500136
aF2.14861514717456
aF1.7423690901996782
aF6.1152747352784411
aF9
asg5
g6
(g8
S'\x7f=\x19\xf4rQ\xf4?'
tRp339
sg10
(lp340
F8.2912317143881236
aI2
aI2
aF0.10325470016831284
aF4.0078854318489956
aF2.5671240055547582
aF2.7334242494870602
aF1.7842451411925491
aF5.4511109521884658
aF5.1097623098880263
aF3.0230284602011448
aF4.4349475094141457
asg12
I100
sa(dp341
g3
(lp342
F9.5397022513469487
aF0.78906824169339729
aI1
aF4.0202479564344955
aF4.3183834441755202
aF8.22909633620087
aF1.3953736992961205
aF5.1174305814071319
aF2.5112631992876446
aF4.5774602222104779
aF2.9606267945717137
aF6.8827290194348976
asg5
g6
(g8
S"]\xc3\x1a\x81'F\x15@"
tRp343
sg10
(lp344
F10.896995010564549
aI1
aI1
aF2.797331945715023
aF2.3371725113386157
aF7.8406754766992712
aF0.60772301408141283
aF4.8732536741336183
aF7.7654551849321489
aF4.510223769256422
aF5.2677846798836629
aF2.0264536951743217
asg12
I100
sa(dp345
g3
(lp346
F9.6657689060355789
aF0.63895206883740152
aI1
aF5.221093630484714
aF9
aF5.6613271810524068
aF3.4052145545686745
aF6.7941191576307673
aF8.9734936685895086
aF1.8560853471224548
aF6.4590932512899588
aF3.6649960334608513
asg5
g6
(g8
S'\x95X\xd9\x85\x88\xd6\n@'
tRp347
sg10
(lp348
F10.523809821644228
aI1
aI1
aF1.0705600201144754
aF3.1945819764627927
aF7.0132981384357498
aF0.95890838967851144
aF6.8307932674694465
aF6.6781492372977018
aF0.49414571434772281
aF6.9862286684940225
aF0.38625439865544231
asg12
I100
sa(dp349
g3
(lp350
F9.4289200093574888
aF0.7068254199715166
aI1
aF0.50782974210469822
aF3.788908225153707
aF5.3395192388536525
aF2.3340601340402856
aF7.0724848508677374
aF4.1828406044924504
aF3.7826727469264085
aF4.128207181122626
aF5.8767260659807317
asg5
g6
(g8
S'\x82Yx\x8d\x8b\xb6\x08@'
tRp351
sg10
(lp352
F10.596280129948788
aI1
aI1
aF4.4056412427118126
aF2.2278685173878596
aF6.2925222861425034
aF0.51000092267676467
aF7.6609510190071948
aF6.6054962747767396
aF5.4651417453065951
aF7.5916327929227414
aF3.2224317110521876
asg12
I100
sa(dp353
g3
(lp354
F9.0267827817388149
aF2.3342037955220993
aI2
aF5.6666650000000001
aI0
aF7.9337098174348277
aF0.11894608749944277
aF9
aF9
aF3.0480350031822296
aF4.1385321871883978
aF1.2601627468094079
asg5
g6
(g8
S'N\x9b \xae\x1fW\x19@'
tRp355
sg10
(lp356
F9.4005032184323163
aI0
aI0
aF0.233176141546661
aF3.7035281082802669
aF6.9188377064367339
aF3.672732631122908
aF2.9568639806995516
aF4.4269207311311796
aF0.67260561124525342
aF4.9826903896702071
aF6.9342983415018065
asg12
I100
sa(dp357
g3
(lp358
F9.6870094113160459
aF1.3030982266577733
aI0
aI0
aI0
aF8.0815566425416616
aF1.0625110243638223
aF6.4282635554287175
aF0.29207598931114509
aF3.4422543233759759
aF0.10526810302698264
aF5.3412125887170632
asg5
g6
(g8
S'\x8b_\x90\x07\xb4\xfb\x1d@'
tRp359
sg10
(lp360
F10.466729743137005
aI1
aI1
aF0.94982706184499355
aF1.7139134854854354
aF7.3740558756373584
aF5.1411729709875349
aF0.30375252846094314
aF2.635167776833867
aF1.9415854781320672
aF5.9302226527427848
aF0.0524856693299246
asg12
I100
sa(dp361
g3
(lp362
F10.845775692545836
aF2.8463729148419281
aI2
aF1.1794727379634007
aI0
aF5.1962171155907146
aI0
aF8.6306776336224527
aF9
aF3.798548398601084
aI0
aF7.2661392394758444
asg5
g6
(g8
S';\xaaG\x0e0Z\x0b@'
tRp363
sg10
(lp364
F9.6384683378052483
aI1
aI1
aF4.919848886313857
aF0.36799636412988379
aF0.20165507079792266
aF2.3885550179866013
aF3.109980576854281
aF7.4386306641124982
aF5.2383294068958799
aF4.0517330488481962
aF6.917107687007416
asg12
I100
sa(dp365
g3
(lp366
F9.4917355430725827
aF4.9140285665198142
aI0
aF3.9558218803337271
aF3.5346940439316969
aF2.589744321992054
aI0
aF3.3469146719844556
aF7.6476578566322662
aF3.5291422382084909
aF7.8680325825967383
aF4.286434688575544
asg5
g6
(g8
S'R\x1e\x85\x00li\x01@'
tRp367
sg10
(lp368
F8.7864345601487166
aI0
aI0
aF3.2292031718339453
aF5.3927036059438462
aF1.7197607317485872
aF2.0500704933955691
aF4.9121498212149772
aF7.9032744094472038
aF4.9467311390612902
aF5.2533879035239295
aF3.5374395599334987
asg12
I100
sa(dp369
g3
(lp370
F8.918320436319668
aF3.8347742565852294
aI2
aF4.5120363324454047
aF0.96049629242750278
aF6.3588349540770235
aI0
aI0
aF9
aF5.6666650000000001
aF5.1126133729014409
aF5.3427509286902941
asg5
g6
(g8
S'*\x06_+\xab3\x07@'
tRp371
sg10
(lp372
F10.096913018778482
aI2
aI2
aF2.4145875975325306
aF5.7426478179181792
aF4.5773625064369305
aF5.368284300194647
aF3.3042916601440586
aF7.9941339930040538
aF3.7921228606866699
aF3.6272292193926612
aF6.9831938302089371
asg12
I100
sa(dp373
g3
(lp374
F7.1871490570945911
aI0
aI2
aF2.5246289239836339
aF3.9295343547505297
aF0.02072617892685702
aF5.4511103505745906
aF8.9373183634648186
aF4.4772777131108743
aF4.9222128302543302
aF2.3712062630245336
aF7.4492240931527069
asg5
g6
(g8
S'\xd0{\xad\x1d\xe39\x14@'
tRp375
sg10
(lp376
F10.500376798189308
aI0
aI0
aF0.04310792874057072
aF1.2456584981007841
aF6.7449672580627311
aF2.8514292650153199
aF4.7448871987076489
aF6.9080601350782782
aF0.30328164876100339
aF1.8593100871402344
aF1.4278081273148964
asg12
I100
sa(dp377
g3
(lp378
F9.723908494265137
aF3.1297013253617592
aI0
aF4.9450143955103556
aF5.4142334379279102
aF7.8356566531013616
aF3.9760566847962622
aF5.0548237419475166
aF2.6278438128841985
aF5.6666650000000001
aF6.2334220466180712
aF8.3302342695798828
asg5
g6
(g8
S'z\xfe\xf6\xac\xc6\xe0\xf9?'
tRp379
sg10
(lp380
F9.6983431967454568
aI2
aI2
aF4.6983391154661769
aF7.3738226784811269
aF0.86515227547180928
aF1.8537387251540016
aF0.71181247019813998
aF3.3199704705219406
aF5.298743286218544
aF3.9272380722619786
aF8.3644561646987068
asg12
I100
sa(dp381
g3
(lp382
F12.238889877408278
aF6.5683574460285516
aI1
aF0.30064738890170251
aF9
aF4.1233362367684112
aF5.3754710799947913
aI0
aI0
aF5.6666650000000001
aF4.2454029837285585
aF2.2012918646315844
asg5
g6
(g8
S':\x01\x94_\x9b\xb4\xf2?'
tRp383
sg10
(lp384
F11.458661165249588
aI0
aI0
aF4.9485650205653879
aF0.93331699853579708
aF0.55986621663289815
aF1.8730028001724672
aF8.9858140459055686
aF0.82701206923514847
aF2.3285171270328386
aF4.5285084055078695
aF6.1654545048077809
asg12
I100
sa(dp385
g3
(lp386
F8.7417459060398262
aF0.68702188793773344
aI0
aF1.10958684178823
aF4.7914244731355442
aF4.4160232550977199
aF5.6666650000000001
aF2.5299435327981437
aF5.1018089693537396
aF4.1263982131157189
aF7.3994796406904335
aF5.8032080846049645
asg5
g6
(g8
S'\xfd=$\ro\xb5\x12@'
tRp387
sg10
(lp388
F11.671158283290348
aI1
aI1
aF1.9503349274333472
aF8.5335992176139612
aF6.9808618351608978
aF5.0965402260276269
aF4.2817341641619908
aF6.8077683754883669
aF0.38232045064956344
aF6.6974102438977408
aF3.8987656526144296
asg12
I100
sa(dp389
g3
(lp390
F7.4669301178571725
aF0.99613540139306
aI2
aF2.7020025050770577
aF0.88359479355973725
aF8.5418383983643373
aF5.6666650000000001
aF4.6582855850616376
aF1.8730719449224029
aF0.7558528382367391
aF2.6965771677302537
aF3.8585726588795044
asg5
g6
(g8
S'\xf5\x8e\xad\xaa\xa1\x7f\x02@'
tRp391
sg10
(lp392
F8.6317923424038181
aI1
aI1
aF4.5368747683143962
aF3.2860540088405923
aF6.5505090841842701
aF0.66066698297352244
aF1.6783747733146965
aF1.7846807476620725
aF3.0970730342479471
aF3.1832776217107424
aF3.8770458878487193
asg12
I100
sa(dp393
g3
(lp394
F9.48807740561735
aF1.9693891115490383
aI2
aF5.2911310511426706
aF2.5745153021449192
aF4.6124377011670585
aF5.2758148417060475
aF1.147755739555385
aF9
aF2.7828114924235368
aF4.6954917911498049
aF2.9003579011321028
asg5
g6
(g8
S'b9.\x8c\xd0\xa5\xf2?'
tRp395
sg10
(lp396
F8.5521297688049831
aI2
aI2
aF3.7272433295500966
aF3.3283360984114161
aF5.0184417227450275
aF0.91915763036851894
aF5.2615529402417227
aF7.8488848689415738
aF2.9535844172287811
aF3.9590060617190708
aF3.7873606517860359
asg12
I100
sa(dp397
g3
(lp398
F11.3363848024793
aF3.2211223972232808
aI1
aF4.2190034692220673
aF1.2597828332165515
aF2.518530898853212
aI0
aF5.0720761494489812
aF8.6017806575013172
aF3.9616251783703404
aF6.8278464452057888
aF2.2625499010383887
asg5
g6
(g8
S'H\xa5wOwf\x18@'
tRp399
sg10
(lp400
F9.9467323512252026
aI1
aI1
aF4.4329896270117306
aF8.1824991394413953
aF7.6279392227935707
aF2.435481006943085
aF5.0841803522772011
aF3.0090109718760951
aF0.42571322252464439
aF3.3903610436044196
aF0.78512451856580912
asg12
I100
sa(dp401
g3
(lp402
F9.9118057445726553
aF1.2470619039100861
aI2
aF0.79215214750748186
aF2.6171745910032937
aF0.36680324373628537
aF2.9410689644938008
aF2.4479452603191838
aF6.1035473498828638
aI0
aF6.7848697861427638
aF3.8955254270883195
asg5
g6
(g8
S' TS\xcev\xce\x14@'
tRp403
sg10
(lp404
F11.638349601557836
aI2
aI2
aF0.49977157631330826
aF0.99911895143283158
aF2.1013865444191873
aF1.192684185230475
aF2.7513035004784667
aF0.58786474054365789
aF4.9429043551007936
aF7.5601720428685457
aF2.4730253535858018
asg12
I100
sa(dp405
g3
(lp406
F4.631316309077155
aI0
aI2
aF5.6666650000000001
aF4.345532085054967
aF2.1138351982575863
aF5.6666650000000001
aF5.1021985076712415
aF3.9047382995704352
aF1.5862222980098428
aF6.5630224782867881
aF2.9387426291176761
asg5
g6
(g8
S'\xf0-\xbb\xb0\n\x00\x12@'
tRp407
sg10
(lp408
F9.2771836117950368
aI2
aI2
aF1.0759974474367959
aF8.0528224358884266
aF4.2655376588754113
aF3.8219413985671777
aF3.0771347843083143
aF8.3928632249558426
aF5.2955727388740721
aF4.6431497079336665
aF1.2638769991548551
asg12
I100
sa.