(lp1
(dp2
S'guess'
p3
(lp4
F7.6808062131459405
aI1
aI1
aI0
aF2.1747055574635006
aF4.5463986600886139
aI0
aF3.4533407440420203
aF8.1287008302725408
aF4.7157613070337003
aF5.7123566567493498
aF6.6527483077867302
asS'guess_score'
p5
cnumpy.core.multiarray
scalar
p6
(cnumpy
dtype
p7
(S'f8'
I0
I1
tRp8
(I3
S'<'
NNNI-1
I-1
I0
tbS'_y\x9d\x1e\xef!\x02@'
tRp9
sS'target'
p10
(lp11
F9.4663267360110943
aI2
aI2
aF3.0613555192898936
aF6.0132633167629628
aF4.9036970868655692
aF0.0363906666882996
aF3.1848518644056401
aF6.1521066760092546
aF1.3741000119693052
aF1.964353350031919
aF7.1127764300361296
asS'num_samples'
p12
I100
sa(dp13
g3
(lp14
F11.298684168164879
aF1.5774017675387639
aI1
aF3.6368236111951275
aF3.8393979987639879
aI0
aI0
aI0
aF1.236381252230812
aF1.3144985400339597
aF8.0271120077015734
aF3.8889642837391278
asg5
g6
(g8
S'UV\xa0\xff%\x0e\xf4?'
tRp15
sg10
(lp16
F10.589068314461729
aI1
aI1
aF4.2557411467179964
aF5.0127358132224842
aF0.32347658942284219
aF0.30005709298868899
aF0.94452040662700776
aF0.46892155204254093
aF0.47930988344269493
aF6.8333391806036392
aF5.5080716981706068
asg12
I100
sa(dp17
g3
(lp18
F8.667975393017084
aI1
aI2
aF1.8393569778281267
aF0.5586033544389849
aF1.9879202484249094
aF1.566874271900879
aI0
aF7.2586516896305193
aF3.0432863106033676
aF6.7022620856576607
aF2.829101103529839
asg5
g6
(g8
S"t\xf2h'\x82\xca\x05@"
tRp19
sg10
(lp20
F8.6680306103740605
aI1
aI1
aF1.80229689236364
aF1.2332047698926303
aF1.8341042825980334
aF1.58435803692708
aF6.5537196901862842
aF5.1245294918568547
aF1.9888268353589886
aF0.22799853143617033
aF4.2497851329358367
asg12
I100
sa(dp21
g3
(lp22
F11.151344896769306
aF0.34302614957877475
aI0
aF0.34486046998435926
aI0
aF2.3701210758475026
aF2.1422777426955713
aF4.5102928612380531
aF3.6420615207320126
aF5.2482391384627425
aI0
aF7.3665000441962531
asg5
g6
(g8
S'\xcb?\xd6\x9e\xdc\x1e\xe2?'
tRp23
sg10
(lp24
F10.021352501421546
aI0
aI0
aF0.51694471889612348
aF0.17547797948690769
aF2.880271206391702
aF2.1832920210114839
aF6.9228418660449638
aF6.5810900248699937
aF0.56168368836405169
aF0.90454221662633705
aF3.9565373075280084
asg12
I100
sa(dp25
g3
(lp26
F11.269167232525707
aF2.2001582244974109
aI2
aF1.4900270312989188
aF7.3513542069083382
aF4.3265029551624599
aF5.6666650000000001
aF4.0001844811644247
aF3.1772265537598754
aF5.6663905761702269
aI0
aF1.196956106688936
asg5
g6
(g8
S'a\xc6\xb1<u\x0e!@'
tRp27
sg10
(lp28
F9.9781715699756326
aI1
aI1
aF3.1161727010307914
aF1.6316000264836976
aF2.6697981758746336
aF1.8357739962005875
aF0.0087771406779634242
aF8.8164801299339608
aF4.2338712123512012
aF2.0158877292217667
aF2.8259345764473052
asg12
I100
sa(dp29
g3
(lp30
F8.7490559874625546
aF1.1612298416281972
aI0
aF1.9618128293754495
aI0
aF4.8709157542179602
aI0
aF2.2865681806300415
aF5.2004662154014714
aI0
aF6.9646558646841656
aF2.2239437385016414
asg5
g6
(g8
S'l!\xf0u\x08\xf0\x06@'
tRp31
sg10
(lp32
F10.115788203585446
aI2
aI2
aF2.7615219963429478
aF0.099084061793813905
aF0.66128582470644381
aF0.26599213537478494
aF6.7448284656733613
aF1.3088111555295072
aF2.4309173002820108
aF0.42019517292196173
aF7.6680989285734036
asg12
I100
sa(dp33
g3
(lp34
F9.6449239182059152
aF3.4102476302701654
aI0
aF4.6709808537832123
aF6.3675450803782558
aF5.9385826633501493
aF3.016049060645535
aF6.5545829633712129
aF1.0231422450140899
aI0
aF4.8283054178615163
aF8.028176867782598
asg5
g6
(g8
S'y\xfd!"-\xc3\t@'
tRp35
sg10
(lp36
F9.4033007598485661
aI2
aI2
aF4.0237853561349022
aF6.043423978323804
aF2.3099501645429164
aF0.98244085792964087
aF7.6103314331998027
aF4.4288545939292732
aF1.511981328420783
aF6.1506983323902027
aF6.5251298126388555
asg12
I100
sa(dp37
g3
(lp38
F8.5980751008826779
aF0.48711106463366083
aI2
aF2.7052266503823827
aF1.9171658839446204
aF2.1070663013227562
aF2.0237554038327334
aF3.4691956779982229
aF7.2137839920684268
aI0
aF2.7546793387369526
aF5.6639561071010052
asg5
g6
(g8
S'\x80\x0b\x1e0%\xe4\x19@'
tRp39
sg10
(lp40
F10.631940810557561
aI2
aI2
aF4.7735579184270902
aF1.748738010787084
aF1.6005168964854024
aF1.6664002379493414
aF4.3173333746682632
aF0.81461554004623871
aF5.273898874600027
aF2.4988442949409393
aF1.9199402852756411
asg12
I100
sa(dp41
g3
(lp42
F10.804233998582278
aI0
aI0
aF5.6666650000000001
aF3.0896722054701966
aF1.0910368647196584
aF0.72488040804318254
aF6.577402678475897
aF3.1587763125542216
aF3.1697342785196367
aF6.7880314836134854
aF2.7859912088840084
asg5
g6
(g8
S'\xf3\xa6s"\xa3*\xf2?'
tRp43
sg10
(lp44
F11.458499251099393
aI0
aI0
aF4.7627472154005259
aF3.3274209822862653
aF1.7356785117170599
aF5.0154632617253725
aF1.5552052078834602
aF7.9464945889089504
aF2.3203531366292531
aF6.9075796996853338
aF1.0407400866384511
asg12
I100
sa(dp45
g3
(lp46
F10.695742923636622
aF0.36755625223809685
aI2
aF1.6401039118503498
aF6.8133503966140561
aF1.6002492083687025
aF4.210486887269977
aI0
aF4.8022960472067595
aI0
aI0
aF2.8640583765635923
asg5
g6
(g8
S'\x99\x03\xebm1Z\xfb?'
tRp47
sg10
(lp48
F9.1818786195887157
aI0
aI0
aF0.9073072481080483
aF0.15583966378681546
aF1.4235843265216446
aF0.45235500534262479
aF8.0686165740431015
aF3.0980720453081463
aF4.6600598435121201
aF6.3398606788447722
aF6.9602977350775292
asg12
I100
sa(dp49
g3
(lp50
F11.601973913369998
aF1.9648574297589751
aI1
aF1.4309473623802369
aF0.6921313248558959
aF2.9479822916774281
aF3.3640385670519284
aF6.3079551231359954
aF4.6825100288227652
aF5.4164713438028134
aF7.1126543998952041
aF2.1900997249694161
asg5
g6
(g8
S'\x07\x97,\xc5i\xac\xe9?'
tRp51
sg10
(lp52
F11.314230239088429
aI2
aI2
aF4.6185024427440213
aF7.2924617298178269
aF2.9249529149026188
aF1.298854300012557
aF0.007962201198518648
aF4.0324029337526159
aF4.1163377573978526
aF6.5567280987215142
aF4.5566622829721322
asg12
I100
sa(dp53
g3
(lp54
F8.4541797676129047
aF0.51635342474111523
aI2
aF2.3370232402304607
aF7.9353987700626671
aF9
aF2.3976496093715185
aF5.5444466445287146
aF5.6880582886626003
aF2.2083549226470014
aF2.0638989912875112
aF5.2613820483347951
asg5
g6
(g8
S'\xed\xd6\xebj\xfc*\x07@'
tRp55
sg10
(lp56
F8.4236115163815057
aI1
aI1
aF4.2574936477401986
aF5.1287187514880133
aF2.166327843323387
aF2.9104555943326229
aF1.1327954449937798
aF7.9122035497969785
aF0.16480859682829532
aF6.091820990387375
aF8.0027528123448928
asg12
I100
sa(dp57
g3
(lp58
F9.9021769357346709
aF1.3422209529648377
aI1
aF0.63279179031023802
aF2.1134576266543026
aI0
aI0
aF4.5633469259735584
aF4.2313719102135092
aF2.4103853926678758
aF2.9246789175084054
aF9
asg5
g6
(g8
S'\x1a\x13$\xf5H\x9e\x07@'
tRp59
sg10
(lp60
F10.791342525707686
aI2
aI2
aF1.8018258054483054
aF1.5610336250851318
aF3.1622398717607578
aF0.055732000966562521
aF2.2868615814669599
aF0.26281286098817447
aF1.2959664624700571
aF4.7072641387624099
aF6.880100057090007
asg12
I100
sa(dp61
g3
(lp62
F9.283191839183532
aI0
aI1
aF3.7941869984544407
aF6.4621244255164862
aF4.3547962442782593
aF2.68632583443152
aF3.7459066917612742
aF6.6009762628627566
aF2.5615015268271364
aF9
aF8.6060285040981874
asg5
g6
(g8
S'\xb5\x19\xad\x05\xb5\x88\xff?'
tRp63
sg10
(lp64
F10.068098606830986
aI1
aI1
aF1.6184706722008424
aF6.2458308220827403
aF6.0360099603130664
aF4.5235506958228147
aF3.6752920081395835
aF5.8910680707595278
aF5.3069531204164431
aF6.5850820114768833
aF2.8194011779032104
asg12
I100
sa(dp65
g3
(lp66
F9.7219305889135299
aF0.81725144654420445
aI0
aF2.9431207920414306
aF0.42545509789898883
aF1.6315150929532076
aI0
aF9
aF4.0652575178019088
aF0.87127906707932112
aI0
aF6.7697197433677712
asg5
g6
(g8
S'\xa7\x8b\xbb\xee\xe6\xa8\xf5?'
tRp67
sg10
(lp68
F9.7864841478933844
aI0
aI0
aF3.383204471071485
aF0.86231042944232139
aF0.42815124444768204
aF2.8190380301829729
aF3.7110553422803343
aF7.0709523802269487
aF0.17042498201774728
aF8.9790483774417744
aF2.1711108364279657
asg12
I100
sa(dp69
g3
(lp70
F10.851217474335931
aF1.9829683309900878
aI2
aF3.5444339338627699
aF5.7087770976969336
aF3.1391998751830061
aF1.4267022897452601
aF2.1926626538241334
aF5.0032274328419692
aF2.399280184548644
aF7.80707605698497
aF6.8199288962861919
asg5
g6
(g8
S'c\xd4\x8d8 v\x03@'
tRp71
sg10
(lp72
F10.217708390745228
aI1
aI1
aF2.7648729937943539
aF1.5200430137263554
aF5.0836741427524661
aF4.368502611062306
aF7.023503077816855
aF5.6257338509575634
aF1.1774813293944042
aF6.1790793503009853
aF3.6482980526299205
asg12
I100
sa(dp73
g3
(lp74
F8.5791472811390008
aI0
aI1
aF0.097799912075821949
aF8.4793565923385312
aF6.7447933413081911
aF0.36731812540953657
aF0.16794867984488748
aF2.3704984859625471
aF5.6666650000000001
aF4.9135675673148054
aF1.4268950895000176
asg5
g6
(g8
S'\xe8 \xb8K\xa7\xd0\x0c@'
tRp75
sg10
(lp76
F9.1121460734356514
aI0
aI0
aF3.4311546674466187
aF0.56385599585569879
aF0.51854977201640384
aF4.5463456118855152
aF8.3790241100790954
aF7.57465724902457
aF2.7808699546106856
aF8.0864457904053157
aF3.4714549136597683
asg12
I100
sa(dp77
g3
(lp78
F9.9552355583990426
aI0
aI1
aF0.84253155720160822
aF5.3355692193340598
aF4.2450396618739035
aF5.6666650000000001
aF1.3222674008699782
aF4.1661846780407643
aF1.4714604581148736
aF7.917620639552764
aF8.8805452222711505
asg5
g6
(g8
S'\xe4o\x98\xf2\xe6.\x11@'
tRp79
sg10
(lp80
F10.719365263740713
aI0
aI0
aF4.4274901456687745
aF0.54776644638745819
aF8.2058030081051641
aF3.6541109199304538
aF5.3890893393309041
aF3.2140048513942077
aF0.022540330673868222
aF4.0547647868150785
aF6.119463997166589
asg12
I100
sa(dp81
g3
(lp82
F11.94770660341144
aF3.6267555517383165
aI0
aF0.79552865407281748
aF0.69769181992245544
aF3.3522097284170389
aF5.368489025070617
aF3.1187943783497403
aF3.5647806289427666
aF2.5455973051860479
aF6.161107627223017
aF1.7838170465869876
asg5
g6
(g8
S'\xe5\xdc\xacr`\xb8\x07@'
tRp83
sg10
(lp84
F11.239123217771409
aI2
aI2
aF2.7452078400309134
aF3.0057254333573269
aF0.72117575790954047
aF3.9554616227590511
aF5.7293025753712179
aF6.5393697721920843
aF2.5438324879404735
aF3.0601196195344302
aF2.9600899554179465
asg12
I100
sa(dp85
g3
(lp86
F10.170525976215124
aF3.0672225189595879
aI2
aF1.9171490145908445
aF2.120530688442904
aF6.2267927816513584
aF2.8891325626918842
aF6.8851016941146854
aF4.4803161610865629
aF2.8990705618936814
aI0
aF3.1531681392741624
asg5
g6
(g8
S'\x17\xe8G\xc5\x7f\xbe\x01@'
tRp87
sg10
(lp88
F9.5744605995413679
aI2
aI2
aF3.4354593046542421
aF5.8128416970513692
aF8.4251624343938349
aF1.443103287662447
aF6.5522605261905094
aF5.1221283084106917
aF3.6482194400971149
aF0.45796230726891352
aF1.1163454863287745
asg12
I100
sa(dp89
g3
(lp90
F10.186031508357102
aF0.8560866183253284
aI2
aF3.342194712666974
aF0.49407805679596506
aF6.4881159301596645
aF0.69717063008133384
aF5.8460959281283307
aF3.0758875207602077
aF1.6345664171377228
aF2.801606832037383
aF6.4547214150244647
asg5
g6
(g8
S'\x82\x88\xca\xc6E\x95\xf7?'
tRp91
sg10
(lp92
F9.6465772986469691
aI0
aI0
aF0.3575481387183822
aF3.5317502745565674
aF6.5475885399373421
aF1.4296790485903226
aF7.0015891544670232
aF3.2670430494411686
aF2.1670565245047722
aF0.69101691405116716
aF4.8755890664272918
asg12
I100
sa(dp93
g3
(lp94
F9.9431529813826618
aF0.51552743214559893
aI0
aI0
aF2.1137074920661689
aF3.0462568500773188
aF2.397288500892357
aF1.3975595197970108
aF3.7865249598896202
aF4.4665359907697804
aF7.2659373471035149
aI0
asg5
g6
(g8
S'\xbe#q\x0b\xb0\xae\x03@'
tRp95
sg10
(lp96
F9.5214970950036903
aI0
aI0
aF1.7001361844598655
aF2.7089967403027733
aF1.3704801356792753
aF4.1753100315575882
aF8.5965765569256263
aF1.9277142602093822
aF2.9756544680674075
aF3.3546652569955175
aF5.6736236627562722
asg12
I100
sa(dp97
g3
(lp98
F10.025035411199653
aF0.043927961137581947
aI2
aF5.1018242946416477
aF5.8229305075054185
aF2.3494721363557387
aF4.5123635763282834
aF6.334360015084453
aF0.043145557935704737
aF5.2017523508274639
aF5.7139500496967708
aF1.9464274114553306
asg5
g6
(g8
S'Z}<\xceFf\xf6?'
tRp99
sg10
(lp100
F10.154404427161259
aI0
aI0
aF4.5008568950892309
aF4.7180575898955706
aF2.6369774845294014
aF5.1959583697954397
aF7.8797103338041214
aF0.6188351749389257
aF0.92180131640002283
aF0.8675549633036731
aF7.9309462712521723
asg12
I100
sa(dp101
g3
(lp102
F10.406577904454556
aI0
aI2
aF1.0697508823379136
aF0.87104118817401632
aF1.958442010181124
aI0
aF2.8945223951543317
aF3.2850445057606987
aF3.9014085408503485
aF9
aF6.9396735190862238
asg5
g6
(g8
S'p\x91O\xea\xf8\x98\xfd?'
tRp103
sg10
(lp104
F9.998252755193576
aI0
aI0
aF2.2483534818374422
aF8.9701800991419169
aF6.1099429739327924
aF0.81910020534920014
aF2.2349837394460534
aF1.4655266549100916
aF0.71500980381501433
aF0.17067958525092697
aF6.0269257107894543
asg12
I100
sa(dp105
g3
(lp106
F9.976114084410824
aI0
aI1
aI0
aF5.9243191680793847
aF7.9122033252503741
aF1.7132968450171151
aF6.6181551211485932
aF1.7105057942376685
aF4.6861510496928735
aF9
aF5.5741805791524204
asg5
g6
(g8
S'\xaf}Q{\xbfO\x0b@'
tRp107
sg10
(lp108
F10.216348805869856
aI0
aI0
aF0.43001572369297369
aF7.0666196171283948
aF4.8421270464351895
aF3.6687750810592643
aF8.9424052637373279
aF3.150720579073067
aF0.66791265888637286
aF8.4375085121258273
aF5.0403631473283541
asg12
I100
sa(dp109
g3
(lp110
F7.9247059475967507
aF1.3174775348340524
aI1
aF3.9839169580864513
aF8.6289781539774122
aF5.5235157467757965
aF2.6955405842869609
aF3.270486710640331
aF3.8075199458285311
aF3.7785586856999833
aF8.880686968108245
aF6.251618106414691
asg5
g6
(g8
S'l\x18\n\xd5V3\x0b@'
tRp111
sg10
(lp112
F8.243324083860319
aI1
aI1
aF3.0367431657732791
aF1.382892035454379
aF5.8145693071905065
aF3.0221442785927812
aF4.8176573163576037
aF6.8175125200201272
aF3.4147534028402649
aF3.6784105117934969
aF8.8404391926587031
asg12
I100
sa(dp113
g3
(lp114
F12.33333
aF4.1912864458539651
aI1
aF2.4680149992351108
aF5.4307323975564454
aF3.6368698077809851
aI0
aF2.4480655804419924
aF1.7132557051458712
aF3.377264454521427
aI0
aF2.6071441605774028
asg5
g6
(g8
S'\x0c\xf9^D-\xfe\x04@'
tRp115
sg10
(lp116
F10.011512456466205
aI2
aI2
aF0.9902799906093166
aF2.1599031954695413
aF6.4235172172808923
aF1.0454313847002561
aF5.0751314982070399
aF6.330986114863288
aF2.1424076488049306
aF2.1980855385217128
aF0.21874857239682954
asg12
I100
sa(dp117
g3
(lp118
F9.8788803856581247
aF2.3289494214470858
aI1
aF5.6666650000000001
aF4.0469560269693421
aF4.1053447156370133
aF2.2625719094088965
aF7.5484261291855468
aF4.0512207870923405
aF3.3307686130020753
aF5.5469446303435985
aF5.0343401582876073
asg5
g6
(g8
S'U9Z`\x90\xe3\t@'
tRp119
sg10
(lp120
F9.8662904787731289
aI2
aI2
aF5.5326205117951002
aF3.6268854921201252
aF6.8346765847263216
aF3.807345457464177
aF6.4170537324075267
aF2.1893866012823695
aF4.63217981804027
aF7.7586149944944278
aF6.2451261442802393
asg12
I100
sa(dp121
g3
(lp122
F9.5263283989197536
aF2.2435107984290648
aI1
aF1.903594670109328
aF7.8842295719988247
aF6.992470263059162
aF3.1133451280751179
aF3.8471460429804147
aF7.3420459552141999
aF1.5793829704277169
aF3.693133698623789
aF1.9870443603964856
asg5
g6
(g8
S'\x91\xed\xfd\x8d\xf5l\x10@'
tRp123
sg10
(lp124
F8.5053042561499321
aI2
aI2
aF2.8310616861463442
aF0.90815220866671076
aF5.4531668066231092
aF1.962215596620811
aF5.5728205194673359
aF2.8545206441489728
aF2.5058472843327277
aF4.3294978802809272
aF3.3095716612311326
asg12
I100
sa(dp125
g3
(lp126
F10.709560163177972
aF3.2625312194604148
aI2
aF0.8547900943770802
aF3.717225990722437
aF6.1661630412267998
aF0.3837064465711561
aI0
aF3.6015671664409399
aF4.782531431817822
aF5.0198195305025584
aF2.7569641435747467
asg5
g6
(g8
S"\xf2'oE\xdc\xca\xe3?"
tRp127
sg10
(lp128
F9.3745562545605914
aI1
aI1
aF1.1388646427198559
aF0.56707492408758065
aF3.5897057731573296
aF4.4656201872813783
aF5.0020481280440379
aF2.2261062866781174
aF0.88621638973301542
aF1.3793246910229406
aF6.5319890820935251
asg12
I100
sa(dp129
g3
(lp130
F10.250420785924891
aF1.1975680207560762
aI2
aF3.0567355771309641
aF9
aF6.7785337365554597
aI0
aF3.233833454335687
aF4.1024710452773521
aF5.6666650000000001
aF3.6631381727121064
aF0.35701445676617583
asg5
g6
(g8
S'Rm\xea\xa9\xa2\x0f\r@'
tRp131
sg10
(lp132
F10.166385019373891
aI1
aI1
aF5.5554833927077452
aF8.2483618749526197
aF2.1186112563965422
aF2.1819382103226101
aF3.7645135802818368
aF1.3780117429779069
aF4.7147311075128098
aF1.0940228570030661
aF4.3539870778156136
asg12
I100
sa(dp133
g3
(lp134
F9.5610863020447105
aF2.0492974493000693
aI1
aF5.6666650000000001
aF2.3803083412919523
aF7.5546211503025322
aF5.4077360261769867
aF5.071946571409204
aF6.6340073967498832
aF4.508321848243213
aF7.328291474381289
aF4.8310542899249196
asg5
g6
(g8
S'\xeb\xcd\x9c"\xcd\xa1\xee?'
tRp135
sg10
(lp136
F8.8719053171079079
aI1
aI1
aF5.1647505894869639
aF7.4700433681390042
aF4.4207516520794794
aF4.5028236200643654
aF4.8383236621527255
aF6.4269238105471889
aF4.8355219220436236
aF3.7755441895010282
aF7.4923286233566886
asg12
I100
sa(dp137
g3
(lp138
F10.976009559394059
aF2.9056938868757283
aI1
aF1.2346904492098782
aF9
aF1.466047030393093
aF5.1577641842940087
aF2.2005572674955411
aI0
aI0
aF9
aF2.9782485519063968
asg5
g6
(g8
S'k\xc5>"\xfbD\x16@'
tRp139
sg10
(lp140
F10.065986520029014
aI2
aI2
aF1.6099838419803323
aF8.8270952077962335
aF0.14376652609621499
aF3.6503041686800315
aF1.6897739182974734
aF2.7313073168006081
aF1.8788980380096234
aF1.2535691617683509
aF4.3986128502997586
asg12
I100
sa(dp141
g3
(lp142
F9.8460480635584346
aF0.15492928209436774
aI0
aF5.6666650000000001
aI0
aF3.0355265612844637
aI0
aF6.4581128970729607
aF3.3233146559316187
aF4.3140821546244457
aF5.0296661684132085
aF2.8570288733430145
asg5
g6
(g8
S'\xd7\x89\x8a|\xf1y\xe8?'
tRp143
sg10
(lp144
F10.032536619515945
aI0
aI0
aF5.239809308444487
aF0.53464830231309235
aF3.3775725823639915
aF0.64878451330375475
aF6.7139861114805264
aF2.1248674059831014
aF5.6395433769581542
aF3.4503395956775567
aF2.6383010435804088
asg12
I100
sa(dp145
g3
(lp146
F9.9097686117560269
aI0
aI1
aF3.3212486345484304
aF2.7021100147914643
aF2.8849592210240593
aF4.7336250200067758
aF8.5891847255529061
aF2.7335375978271839
aF1.0246656639669713
aF2.9176118546943361
aF2.1216459670329177
asg5
g6
(g8
S'a\xda\x990]\x07\xe7?'
tRp147
sg10
(lp148
F10.358765092097077
aI0
aI0
aF4.8137062414134695
aF8.8125517504962438
aF3.4129408290068417
aF5.0134518482239603
aF5.6761562771385368
aF0.33256735926527758
aF1.0854108292124618
aF1.9683088180483956
aF0.74824206566111395
asg12
I100
sa(dp149
g3
(lp150
F9.8435500586448388
aF1.2258879425972324
aI0
aF5.6666650000000001
aF6.4247627365768318
aF4.9511702859374989
aF0.83850760816253733
aF5.8592581233511778
aF5.3523943399818741
aF5.6666650000000001
aI0
aF9
asg5
g6
(g8
S'\x1dg\x12u\x8a\xe3\x08@'
tRp151
sg10
(lp152
F9.9575272078170283
aI1
aI1
aF4.0021045550359942
aF6.2676051015775522
aF8.7286743150500445
aF3.7351859073718914
aF5.862991351194399
aF7.3245158337417084
aF1.9106814041454521
aF5.809882504280818
aF5.0312712992172557
asg12
I100
sa(dp153
g3
(lp154
F9.4756002045363008
aF1.7649788712995151
aI0
aF4.5782223677172329
aF0.28831443203776985
aF1.4014587558017513
aF0.44785406774754977
aF8.6228132646212714
aF1.7660699753120737
aF1.6133559729218387
aF2.6871159989584266
aF9
asg5
g6
(g8
S'\xb529\xb6\xd5\xa5\xe3?'
tRp155
sg10
(lp156
F9.8334468248049713
aI2
aI2
aF5.6620293027040525
aF4.0448630361256406
aF8.4052432943207478
aF1.8048010785894433
aF8.0040767113564772
aF0.11814953880339374
aF4.7692163825227585
aF0.22088161364223702
aF0.82183635430932001
asg12
I100
sa(dp157
g3
(lp158
F8.2276297975621411
aF0.49972763784225516
aI0
aF1.7535083478016451
aF6.1019097585380484
aF4.3914884812803052
aI0
aF3.7702393676496153
aF3.2806163419990311
aF0.33651170489193377
aF7.1384223112811647
aF4.1092362070899711
asg5
g6
(g8
S'\xe2\xfd\xc01\xeap\t@'
tRp159
sg10
(lp160
F9.7990174999765269
aI2
aI2
aF4.8517343841602774
aF7.3579230610182762
aF0.71435161093627897
aF0.82376748067389105
aF4.4486459346253797
aF2.3410266153510646
aF1.237202572671273
aF5.3946642105290472
aF1.3342862391074757
asg12
I100
sa(dp161
g3
(lp162
F10.874416229628538
aF3.1746962327332646
aI1
aF5.6666650000000001
aF6.5835517189779358
aF2.041388775540447
aF0.32580286599100705
aF8.8741926283879629
aF4.4226927071748205
aF2.0697518882944301
aF4.9030612382715653
aF2.6236906570642504
asg5
g6
(g8
S"F'\x04c4X\x0f@"
tRp163
sg10
(lp164
F9.8768744496062446
aI1
aI1
aF1.3666785175606322
aF6.7036856508774134
aF2.4250155020283906
aF4.0498496420265582
aF7.6914831283022691
aF4.1329756900299017
aF2.3979011861015489
aF5.0458637760853327
aF5.3019971228319633
asg12
I100
sa(dp165
g3
(lp166
F10.289261950383082
aI0
aI0
aF3.4689074109447411
aF1.8573415330434
aI0
aF0.39467169759797294
aF4.3729008972974128
aF6.8953352894361837
aF1.2942188742416554
aF6.8366987668443979
aF9
asg5
g6
(g8
S'\xbb\xf6\xde\xa7u\xc4\xf9?'
tRp167
sg10
(lp168
F11.138672489585785
aI0
aI0
aF2.4109468784544186
aF2.117472166985424
aF1.1860207048172775
aF2.317073623618656
aF5.1666162193004643
aF4.6887702567586658
aF4.7313435484848618
aF3.0722858308931675
aF4.0321437041783419
asg12
I100
sa(dp169
g3
(lp170
F9.9041899049963842
aF0.4511826290450498
aI2
aF0.13766316422204272
aF3.5938254042965401
aF5.6362775647104115
aF3.712782846472471
aF5.7648984826300076
aF5.1820995867035888
aF5.3172451570068757
aF0.64124575415250662
aF4.5048686380724812
asg5
g6
(g8
S'hd\xf5\xfd\x91\xe6\x13@'
tRp171
sg10
(lp172
F9.212144917803716
aI0
aI0
aF2.1172594694395728
aF0.66900106323090358
aF8.3142781538801298
aF4.035720382870374
aF0.84193641642079975
aF8.4273264322441133
aF3.4244948651454963
aF5.3612974907436817
aF2.2245594203068828
asg12
I100
sa(dp173
g3
(lp174
F9.926857161434345
aF2.3838480912930602
aI0
aF5.6666650000000001
aI0
aF2.3973276187999568
aF5.4128713051212332
aF4.4655844655455885
aF2.4964298084581116
aI0
aF6.3819500490876155
aF9
asg5
g6
(g8
S'u:lp\xeb4\x1a@'
tRp175
sg10
(lp176
F9.0765278257410849
aI0
aI0
aF5.1520861932660891
aF0.13936206558599895
aF8.9272808768786298
aF3.5898839681351862
aF5.0975080981363172
aF5.2141728883251277
aF2.2470349104463749
aF3.6154656244507999
aF4.9772849321195318
asg12
I100
sa(dp177
g3
(lp178
F10.84793039902484
aF2.3013837159044339
aI1
aF2.344870602169582
aF6.0334053932223339
aF2.6146210925908657
aF3.2162732863388621
aF9
aF1.2446214522848849
aI0
aF4.4696449802009957
aF7.7681175417537176
asg5
g6
(g8
S'\xe8\xf4\xb5_>\xcc\xe6?'
tRp179
sg10
(lp180
F10.7437253666003
aI2
aI2
aF0.55897945789408654
aF3.0122494075349175
aF7.3273187231511043
aF2.5037171212379228
aF6.8221256383011921
aF1.5984258787843093
aF3.1205713776101436
aF8.3528061565341893
aF1.5266511505558071
asg12
I100
sa(dp181
g3
(lp182
F12.33333
aF0.70373154148890238
aI2
aF3.3301980847505295
aF4.2684543901362169
aF2.437434699188219
aF2.1006549275219011
aF7.2705819046799789
aF8.7606004066011494
aF2.0913776803204649
aF0.57724095111154594
aF1.5577156793243021
asg5
g6
(g8
S'!\xf1\xe5A1\x89\xe5?'
tRp183
sg10
(lp184
F11.826389868692386
aI0
aI0
aF2.101539615130172
aF1.1166695790768641
aF1.1554239758068521
aF1.8432720121325756
aF3.5176987335259398
aF3.9976551239990856
aF4.3741789270684963
aF7.4564990196863592
aF5.4528539518686445
asg12
I100
sa(dp185
g3
(lp186
F9.6430407941944054
aI2
aI1
aF4.1362003693984377
aF3.532376399690655
aF1.9853338265092342
aF4.3331961234882819
aF3.5577153783123721
aF1.6599581271533914
aF1.0434963724126616
aF4.2882130914974903
aF2.3679184731463834
asg5
g6
(g8
S'\xea\xb3h*8\x85\x15@'
tRp187
sg10
(lp188
F9.3397186683471567
aI1
aI1
aF0.1272851358194512
aF0.02956111923937299
aF3.2534614336469074
aF1.3544644784129654
aF3.83280288429913
aF6.1317507326185634
aF3.0897763287119537
aF4.4075454338021727
aF3.2450218789233536
asg12
I100
sa(dp189
g3
(lp190
F9.5905184172381226
aF2.2515702675910205
aI0
aF5.0701348999942644
aF7.1496357393558174
aF4.2234206519763919
aF2.932839926142472
aF3.0129344237577302
aF0.4865628272322704
aF0.94653545003464434
aF5.0516064200448634
aF5.0126840395123713
asg5
g6
(g8
S'\xd9\xbe\x01\x9f\xe8;\n@'
tRp191
sg10
(lp192
F9.2935210408233235
aI2
aI2
aF1.5227971897488279
aF6.0411381371607424
aF4.8768654959173299
aF3.1867621981975707
aF2.8345662324736809
aF0.51707194616162
aF2.3714666646079463
aF7.0960086094054544
aF6.0856261787506245
asg12
I100
sa(dp193
g3
(lp194
F9.9430876797933774
aI2
aI2
aF2.5071359433463418
aF1.3579017471172006
aF4.3257944786416473
aF1.9477868886416623
aF4.5085986654081776
aF5.8752731086794876
aF2.6626592949983077
aF9
aF0.48035735728361584
asg5
g6
(g8
S'\x13\x9a\x82\xcaC\xb9\xc9?'
tRp195
sg10
(lp196
F9.829956990577541
aI2
aI2
aF5.1067307735846885
aF4.3916803178066468
aF4.6246763509130977
aF2.9419043474821676
aF1.958455090146114
aF2.7382619391101688
aF2.6037217476842978
aF8.8526334952564074
aF0.35708146382940287
asg12
I100
sa(dp197
g3
(lp198
F9.6231266329658443
aF2.6723983077473599
aI0
aF0.22094934904589489
aF7.1461857932743298
aF1.3865415095363509
aF1.4158690904662377
aF5.1777027298987708
aF5.9790149721759827
aF5.6666650000000001
aF7.1964817407677355
aF6.5150443167113599
asg5
g6
(g8
S'\x95\x9co\xbb\xc2\x8b\x1e@'
tRp199
sg10
(lp200
F9.206840699384145
aI1
aI1
aF0.56890227374759539
aF8.5603535490967655
aF7.6468644248587232
aF2.8222964275811675
aF6.2542163383786855
aF8.5106756680976545
aF0.75712189391150875
aF6.895197049698556
aF1.0650219052588743
asg12
I100
sa(dp201
g3
(lp202
F12.106838406086915
aF3.2448346431208726
aI2
aI0
aF2.5358552615106023
aF1.6515522488774579
aF3.4508231085011616
aF2.763183780290543
aF2.9722525679503424
aF5.6666650000000001
aF5.679986228773906
aF4.7339417861237383
asg5
g6
(g8
S'\x9f\xf1R\x1c\\\xd0\xf5?'
tRp203
sg10
(lp204
F10.445259821783363
aI1
aI1
aF1.3151659658657457
aF2.5546796727775125
aF0.43912724358026067
aF5.5028263512454529
aF4.8694112247830912
aF5.8178699873128217
aF5.5752286126997976
aF8.0262561354327513
aF8.0722052567419311
asg12
I100
sa(dp205
g3
(lp206
F9.3712805652443567
aF0.94248185655555528
aI0
aF1.8881455933580549
aF1.598891948632613
aF7.2927310403394712
aF3.0243508441518481
aI0
aF9
aF0.52514352723455127
aF6.7675524240603444
aF6.9791918283109133
asg5
g6
(g8
S'E\x9e\xd0\x04M\x96\x07@'
tRp207
sg10
(lp208
F9.8977501732169877
aI2
aI2
aF0.89529267619199415
aF0.55645776202178865
aF8.6516861829286285
aF0.88653899882721887
aF6.4669949516007366
aF6.3786105360666019
aF4.4761625547107151
aF0.94578240968175809
aF8.5451743960669315
asg12
I100
sa(dp209
g3
(lp210
F11.725467462842868
aF1.2755288864652714
aI2
aF3.0502737002214522
aF4.4276137015067194
aF7.4335837131957083
aF2.878068094518055
aF2.6519565152679698
aF4.2528967202467154
aF5.6666650000000001
aF3.7502842775553913
aF3.2852726334551785
asg5
g6
(g8
S'Vwp9\xd1\xbe\x02@'
tRp211
sg10
(lp212
F11.678572758297868
aI1
aI1
aF4.9854246606838455
aF1.2754377531571994
aF8.6692920616932181
aF3.4463402327668167
aF3.8349674531551106
aF2.5413344245116871
aF4.4839351393481799
aF3.040027899393539
aF5.0785242424493182
asg12
I100
sa(dp213
g3
(lp214
F10.033641884000073
aI1
aI1
aF3.9824611206196976
aF8.0385105569067488
aF4.0108136178799159
aI0
aF7.0392382168259751
aF7.486053703608726
aF2.1643344756389267
aI0
aI0
asg5
g6
(g8
S'k\xbf\xb3\xd4\x97\x1c\x08@'
tRp215
sg10
(lp216
F9.6023377590615482
aI2
aI2
aF2.0616971722517508
aF7.8340356756282947
aF4.0982474480727786
aF1.956076765289076
aF0.12506709924723602
aF0.33915955288272648
aF1.8083480193435766
aF8.3103313880030552
aF5.4371117009793588
asg12
I100
sa(dp217
g3
(lp218
F11.521826037053756
aF3.4999665222941601
aI0
aF2.7869801603479383
aF6.1724763550077881
aF2.1785188254129126
aF1.1261254027443308
aF6.6882312621224331
aF8.6992717739127894
aF1.4797352226706699
aF5.1091332763172925
aF0.72270571869630695
asg5
g6
(g8
S'\xc3\xc33\xdbq\xef\x0b@'
tRp219
sg10
(lp220
F10.223083465542695
aI2
aI2
aF1.2159721928419158
aF6.9369593173357824
aF1.5659550647635996
aF5.3103472385968118
aF3.3424643262614828
aF6.2353585824322808
aF0.23537976633249003
aF5.5176052081219646
aF4.4706704851893262
asg12
I100
sa(dp221
g3
(lp222
F9.000979464872799
aF1.8870346511744855
aI2
aF0.89344252483954578
aF9
aF2.9188946195496079
aI0
aF7.3551175809219114
aF1.6335988073766314
aF1.5703864473388323
aF6.8656929434330891
aF2.7179807407431094
asg5
g6
(g8
S'\x00\x9e\x94\xd5\x95\xa6\x04@'
tRp223
sg10
(lp224
F9.7548927415986313
aI2
aI2
aF3.2036561251614564
aF8.4835577252040402
aF1.0623722961499495
aF1.8594183830872326
aF6.7842867321646088
aF6.8631835218845829
aF0.080953802967900182
aF6.7498033772540733
aF0.61287298869605888
asg12
I100
sa(dp225
g3
(lp226
F10.18356125957788
aI0
aI1
aI0
aF1.6192208886567603
aF4.2997742748025436
aF1.0484045761593657
aI0
aF4.6277669776814534
aF3.4825742959066348
aF7.8279528751094816
aF1.3317385067016627
asg5
g6
(g8
S'\x1f\x8c\xdf\xe6\x92k\x03@'
tRp227
sg10
(lp228
F11.523482726796795
aI0
aI0
aF1.748654289206091
aF0.23642712211713413
aF2.3154874901709377
aF4.2924728672257206
aF4.5142751380645461
aF2.0703284095657759
aF2.5447048805822479
aF7.8029626420008693
aF1.8858537760305607
asg12
I100
sa(dp229
g3
(lp230
F10.581821469078164
aF1.0431260317357276
aI2
aI0
aF1.7261984257396406
aF7.5283938119126139
aF5.6666650000000001
aF4.6163179535062691
aF9
aF1.5616949495552421
aF3.2827732673652656
aF1.0486794748208985
asg5
g6
(g8
S'\xfdQ"\xd3\t4\x12@'
tRp231
sg10
(lp232
F9.4992577878970135
aI0
aI0
aF1.1715475391586665
aF3.0024182427185977
aF5.5740675418530721
aF0.20672032923910238
aF3.4444509745973564
aF2.4538535471990071
aF1.9555283199813518
aF1.4451259934990739
aF7.7528827777724043
asg12
I100
sa(dp233
g3
(lp234
F10.153265600006069
aF3.4461099238323785
aI1
aI0
aF6.7345416705425158
aF4.0187309477560245
aF4.0863425282544279
aF0.26294380441455911
aF3.5480669393011648
aI0
aF4.7091446748082637
aF7.1829418880429117
asg5
g6
(g8
S'a\xb26d\xaa \x10@'
tRp235
sg10
(lp236
F10.231772232845813
aI2
aI2
aF0.72616938600079206
aF5.7218397659561688
aF2.1114942048144276
aF4.5934026142851287
aF1.2589707957575702
aF4.9150737389547583
aF1.3965919544976508
aF1.4815587676356412
aF6.2933241160604254
asg12
I100
sa(dp237
g3
(lp238
F9.8107860735103127
aF1.3220348682197771
aI2
aF1.1823075365209732
aF2.6499899864139094
aI0
aI0
aF5.133780429286432
aF4.896562304709704
aF5.6666650000000001
aF0.33707222559622307
aF9
asg5
g6
(g8
S'\x98\xee&\x9e%\xcd\x19@'
tRp239
sg10
(lp240
F10.254843280947753
aI2
aI2
aF0.60806863070982986
aF7.9367262656218918
aF8.6966775725476335
aF0.25368656876052281
aF3.4925214676883884
aF0.74781859609384571
aF2.074595139458955
aF0.60497060355919308
aF3.6490995731646709
asg12
I100
sa(dp241
g3
(lp242
F10.118328725778158
aF3.3246651254832793
aI1
aF3.2119795474114161
aF2.2360192279224052
aF2.1777494894389098
aF0.93795867780004327
aF3.2130813349604979
aF1.4181704484559319
aF5.6666650000000001
aF1.3002788082027628
aF9
asg5
g6
(g8
S'\x7f/\xf8eT\x01\x19@'
tRp243
sg10
(lp244
F9.5318461808948136
aI2
aI2
aF1.2350849118499372
aF4.5411298675229936
aF1.6712580935178993
aF1.2981333652218836
aF0.045855526927444323
aF3.1695839407365245
aF4.3325376707666825
aF2.9303209826351897
aF6.6598889821508989
asg12
I100
sa(dp245
g3
(lp246
F9.3837932140473335
aF1.5933040044872933
aI0
aI0
aF7.1310233679362067
aF4.9550079311123572
aF3.1783772165463455
aF1.5344458206555154
aF2.1936809958027381
aF5.6666650000000001
aF5.5169068081344736
aF3.1773132642482862
asg5
g6
(g8
S'\xb4\x83X\xed\xf8\xbf\xfe?'
tRp247
sg10
(lp248
F9.6473994426318761
aI2
aI2
aF3.4354773701684009
aF0.26622110940456667
aF3.6269987254788516
aF2.6012549441571906
aF4.6504483880989085
aF3.5057793424117487
aF1.718445574806337
aF7.9111394639154016
aF4.5917707193870516
asg12
I100
sa(dp249
g3
(lp250
F11.355241819194168
aI2
aI2
aF1.9001573337356019
aF3.7988663323049341
aF2.7081666002364555
aI0
aF3.1135469315179156
aF6.0750277197183609
aF1.5163596081905879
aF7.2288825308891607
aF8.2396325366340832
asg5
g6
(g8
S'\x9d\x81\xdd\xa1Z\xe7\x0c@'
tRp251
sg10
(lp252
F11.148857108569109
aI2
aI2
aF5.2601034746272175
aF3.9378070201318476
aF8.998782394735489
aF0.31303756188070647
aF2.3407747281141642
aF4.7580244755805241
aF0.64345864363163419
aF7.3374719562119139
aF4.7353816358380891
asg12
I100
sa(dp253
g3
(lp254
F9.9796460854799705
aI0
aI0
aF4.4919044904168564
aF5.9392715794950171
aF2.7279217763029351
aF2.8981088509350172
aF4.7356603402715294
aF1.0289284286462959
aF1.0632765761296157
aF5.1817877438935964
aF5.2540812481810359
asg5
g6
(g8
S'6\xe5\x06\t:\xd2\x03@'
tRp255
sg10
(lp256
F9.5485242825693462
aI0
aI0
aF3.4558495616026379
aF6.8729549850303346
aF0.68010005652391858
aF3.2367604952458122
aF0.53784441468892774
aF5.3172244258170007
aF3.7930605031978599
aF1.2466406277802542
aF7.4485663230961165
asg12
I100
sa(dp257
g3
(lp258
F9.9762849445229183
aF0.15506282092570464
aI1
aI0
aF2.0310623627858897
aF5.3640071627778303
aF2.5082392821344683
aI0
aF5.5234004425656114
aF4.2700570912868496
aF6.8301777177680041
aF5.5033148586411063
asg5
g6
(g8
S'*\x89oZ\x18\x80\x05@'
tRp259
sg10
(lp260
F9.7541778737298692
aI0
aI0
aF0.46535157838988983
aF0.17447788344824311
aF3.7858523943453246
aF5.0965915219324591
aF5.9521677241814199
aF5.1776062174418103
aF3.7137835518058382
aF4.38398230169323
aF3.7381571353520182
asg12
I100
sa(dp261
g3
(lp262
F11.439918699244439
aF1.553060961100188
aI2
aF1.9580508097193101
aF0.10527783859559181
aF3.8939875436719285
aF3.1772147531768917
aF3.7099431841085222
aF2.683153328266271
aF0.3941211146456603
aF6.87633235685351
aF1.9004978037524543
asg5
g6
(g8
S'"GG\x1dq1\xeb?'
tRp263
sg10
(lp264
F9.8204726543749068
aI0
aI0
aF0.87675949962526489
aF6.8219219401091129
aF1.2031923526665862
aF3.5461175705550416
aF1.6115572898181503
aF1.3902600776924348
aF0.15190010381267643
aF2.674480370012204
aF6.9817617048495544
asg12
I100
sa(dp265
g3
(lp266
F8.9489348041269139
aI0
aI1
aF3.7016122320277818
aF8.6270869034102855
aF4.5868492278576793
aF1.3137304524803044
aF5.1046080610513451
aF7.8457775880408693
aI0
aF5.037672036194567
aF9
asg5
g6
(g8
S'\x03\x95y\xa1\xabl\xf4?'
tRp267
sg10
(lp268
F10.671722668537408
aI2
aI2
aF4.9940775736485685
aF5.9235621287589435
aF4.0824244265002472
aF1.4616982828987217
aF8.6687782197814762
aF7.2477412091933529
aF2.3715969803200605
aF5.5189459221838835
aF8.4278201993704922
asg12
I100
sa(dp269
g3
(lp270
F10.056014055350955
aF1.3462173346062496
aI2
aF0.46593092386133894
aF0.44893515260964467
aF2.1104146319828851
aI0
aF6.1578844658772098
aF6.3614340212351683
aF0.52035806020302067
aF9
aF3.7567808787526715
asg5
g6
(g8
S'\x93\x8fe\xba\x12\xd1\xe0?'
tRp271
sg10
(lp272
F9.7437542763337781
aI1
aI1
aF4.191844873272923
aF0.74658217599603627
aF5.7672504041955452
aF0.19145674203102095
aF8.9202328132437358
aF3.3547434454633538
aF0.72052622449335035
aF1.158675787281257
aF1.6211268881094276
asg12
I100
sa(dp273
g3
(lp274
F10.593659219654661
aI0
aI0
aF2.4534966316364692
aF2.1838664558833525
aI0
aI0
aF6.6149356005433351
aF5.2602068014723509
aF0.50783679837763285
aF9
aF5.3199233570778297
asg5
g6
(g8
S'\xdb\xb7\xda\xaf\x8a*\xfe?'
tRp275
sg10
(lp276
F10.565868958189537
aI0
aI0
aF1.482391165671693
aF1.2089114964582715
aF1.2888359108565695
aF2.5391164793517862
aF7.3822671603644032
aF1.6056090424875546
aF1.4691147775592301
aF6.152667249171258
aF4.3979338795277254
asg12
I100
sa(dp277
g3
(lp278
F9.6926113119874646
aF1.4470298866698226
aI1
aF1.433595625677988
aF3.9608571440067983
aF4.560893188132443
aF2.3811802980494292
aF6.8826323410521599
aF8.7305801066935089
aI0
aF1.1086657558992545
aF4.6275805108931429
asg5
g6
(g8
S'\x19y\xd0\r5^\xf2?'
tRp279
sg10
(lp280
F10.171218937237317
aI2
aI2
aF2.039233543995727
aF3.0255296093901132
aF1.4973792685750609
aF4.4206222428392614
aF0.44014892166505248
aF6.6129503578328617
aF1.8538306974623351
aF7.8741212250608292
aF8.968814795133131
asg12
I100
sa(dp281
g3
(lp282
F8.6029720718752962
aF1.3856711006815647
aI2
aF3.8738063264379021
aF5.686516902478493
aF3.1429562184137367
aF1.3513541156279762
aF4.0583245520058542
aF5.6038632820503462
aF5.6666650000000001
aF5.8317049721158476
aF3.3550076450980564
asg5
g6
(g8
S'\x91\xb0A\xebXX\xfc?'
tRp283
sg10
(lp284
F9.3163389212952357
aI1
aI1
aF4.1943263829716733
aF4.7737680038267021
aF0.96963000998765803
aF5.1762517924172942
aF5.815151209917258
aF5.0572644411399601
aF1.9317718978413976
aF8.2205184006009304
aF7.2777631308222475
asg12
I100
sa(dp285
g3
(lp286
F10.935857928840626
aF3.4257981682593814
aI2
aF2.6557084038354848
aF2.029717862744099
aF6.1060157288100525
aF5.6666650000000001
aF7.517052979904383
aF6.8175689508199309
aF5.6666650000000001
aF6.6027616675719658
aF8.9731824962370421
asg5
g6
(g8
S'\t:\xd6!\xa9\x1b\x03@'
tRp287
sg10
(lp288
F10.105352531820781
aI2
aI2
aF3.625052493361252
aF2.3884686502221673
aF4.7998684320004079
aF3.9427941119478285
aF2.2283338031918136
aF6.3616101085280778
aF3.3121942631731325
aF6.7457774982397183
aF8.5977150134453897
asg12
I100
sa(dp289
g3
(lp290
F9.8734776998536802
aI2
aI0
aF2.410943334920908
aF5.5681242676961169
aF7.4550941849000267
aF1.5372515032580423
aF3.9031766683673803
aF6.6390113680014995
aF0.021537192702776962
aF6.2924922362238265
aF4.3292757286716919
asg5
g6
(g8
S'bo\x9d\xfd\xdb\xd1\xf6?'
tRp291
sg10
(lp292
F10.359180477662655
aI2
aI2
aF1.2742886246536915
aF6.0271884386720309
aF2.8189211793675848
aF2.4187297567776218
aF1.5296396966557122
aF5.4419345240966823
aF1.1068251944224567
aF5.9683226006742434
aF7.0388442751647187
asg12
I100
sa(dp293
g3
(lp294
F9.8427647467083883
aF0.63230258434995679
aI1
aF1.5130312916220292
aF5.3741992995670289
aF5.6459714558370742
aF5.6666650000000001
aF4.1175738408322315
aF2.5803153122031364
aF2.0071262539118542
aF9
aF8.9339339352978833
asg5
g6
(g8
S'y\x8e\xf3\xb3[\xd9\x0c@'
tRp295
sg10
(lp296
F11.297574358847898
aI2
aI2
aF2.8071469834002687
aF8.5705378669820238
aF7.0255316545103224
aF4.3417888657122523
aF3.7215848745507465
aF6.1639386280987907
aF4.102483654338247
aF4.5000589247892622
aF5.8069589944680864
asg12
I100
sa(dp297
g3
(lp298
F9.8833447335240603
aF0.25752511929096977
aI1
aF4.7763221276687302
aF2.0009825593007742
aF3.7184391071781655
aF1.8053970793865017
aF5.8173670814152585
aF0.057244620225965097
aF5.6666650000000001
aF5.8988261739613668
aF4.9821134589030134
asg5
g6
(g8
S'\x1a\x07\xd7\x81\xa4\t\x17@'
tRp299
sg10
(lp300
F10.043018230859985
aI0
aI0
aF4.5244100266195888
aF5.330365431414835
aF5.1110231715454963
aF2.8498083522759723
aF3.5500654806781151
aF5.1799550161350201
aF1.0035759851119721
aF5.6447361489053822
aF0.8462815964051057
asg12
I100
sa(dp301
g3
(lp302
F8.4829690434772402
aI0
aI2
aI0
aF2.6229152369412794
aF3.2754851730002459
aF0.52175600904193598
aF8.06724221565457
aF4.6096730229766827
aI0
aF8.239242239912933
aF1.2918394035030913
asg5
g6
(g8
S'S`\xa6\x11h;\xf4?'
tRp303
sg10
(lp304
F8.4484207196616161
aI0
aI0
aF0.6466750541097317
aF8.091168319054912
aF0.21533826413922474
aF0.87826145120077592
aF3.2239704134612692
aF1.6836560181531435
aF4.7396815511796779
aF8.2508695726913359
aF5.7707691273597526
asg12
I100
sa(dp305
g3
(lp306
F9.967959956566899
aF3.9052016870061657
aI0
aF1.6607994035740292
aI0
aF7.1125054598106523
aF2.2511079128971354
aF4.5915257343501681
aF1.6528662777916558
aF3.6374680183407375
aF7.1441357101793788
aF2.6835641499455645
asg5
g6
(g8
S'\x9c\x9af\xb8pR\x15@'
tRp307
sg10
(lp308
F9.7619689318364173
aI2
aI2
aF5.4591799356602158
aF7.7573719557836798
aF3.8084035952220194
aF1.9441275077340416
aF6.132182807844762
aF2.1256802584732828
aF2.5339116656516434
aF1.6907824793715496
aF2.1332237454764664
asg12
I100
sa(dp309
g3
(lp310
F3.9692480836190445
aI0
aI1
aF1.6164583148742682
aF6.2479033957679038
aF4.6787404687473195
aI0
aI0
aF3.3632694355018242
aF4.7941485669767872
aF0.71110383408240363
aF4.5628649881773411
asg5
g6
(g8
S'\xcb\xbd\xeb\xd7\x02P\xfd?'
tRp311
sg10
(lp312
F10.018158488837649
aI2
aI2
aF0.32845176817321042
aF8.0994153095185641
aF4.9984603837058392
aF1.7507946954985278
aF0.94901350043585331
aF1.2678940288229281
aF1.258251749033332
aF0.72593940214076946
aF4.4795861277342963
asg12
I100
sa(dp313
g3
(lp314
F11.706001043131696
aI2
aI0
aF2.7821015413766266
aF8.7124970454513608
aF2.0236258491340369
aF2.1591477455850883
aF5.1896846570873683
aF4.5643078411348821
aF5.6666650000000001
aF6.1425187324970025
aF3.5867554478797126
asg5
g6
(g8
S'\xed-\x15\xce\x0b=\xf2?'
tRp315
sg10
(lp316
F10.220561343370552
aI0
aI0
aF3.5851088366024175
aF7.9687805467101729
aF2.3421314365821591
aF2.0700290404245596
aF6.1591512450994346
aF3.3603832687401276
aF4.657462090218309
aF6.0661169776895401
aF8.031624253208502
asg12
I100
sa(dp317
g3
(lp318
F10.429196828878386
aF0.094699645001417823
aI1
aI0
aF3.0480220535339742
aF2.8489426357219076
aF4.1817583833458958
aF9
aF2.9955907559565755
aF1.9417141134750358
aF2.1968551632067088
aF2.7958045750520126
asg5
g6
(g8
S'\xa6\xd4V\xa8\xbc\xa2\xf6?'
tRp319
sg10
(lp320
F10.346414117908735
aI0
aI0
aF4.3864935072300808
aF8.6022700702001718
aF4.3377373139230224
aF1.3274854318496669
aF1.8430431712398856
aF1.4871338661786466
aF1.3369588192630824
aF7.3056010063201446
aF3.0879583455831576
asg12
I100
sa(dp321
g3
(lp322
F11.260634888408756
aF2.3096692994318389
aI0
aF5.6460764553749589
aF3.4403650565247377
aF1.2415744926009489
aI0
aF0.76251819330267345
aF9
aF5.6666650000000001
aF3.3184312983419133
aF2.2533291882350648
asg5
g6
(g8
S'\x81f\xd9%\xf6o\x1b@'
tRp323
sg10
(lp324
F10.721170480921451
aI1
aI1
aF0.31010363214665815
aF3.163206361510333
aF6.4981875522563914
aF5.3480572497013457
aF3.6104561300274045
aF8.0923236034908772
aF4.9851362938530714
aF0.44344064458116284
aF6.2347815092843915
asg12
I100
sa(dp325
g3
(lp326
F9.7826351967447405
aI0
aI2
aF1.4488951819642018
aF2.0095352653225693
aF0.98319188078580211
aI0
aF0.48664261050847279
aF6.5340203306453741
aI0
aF2.7565020155716566
aF4.4907569070481586
asg5
g6
(g8
S'\x14\xcb\xeb\xfa)9\xe2?'
tRp327
sg10
(lp328
F9.8312897065929068
aI0
aI0
aF0.11034584004375235
aF3.2002334865279165
aF4.8302144136820502
aF0.50721843531642952
aF2.623149847406276
aF2.500805823794654
aF1.2075331625141825
aF0.49212671796753782
aF2.6551514726793251
asg12
I100
sa(dp329
g3
(lp330
F12.33333
aI2
aI0
aF1.3514185337547264
aI0
aF7.5925939353664624
aI0
aF1.505911715264953
aF7.1897238611365086
aF4.7327888380345211
aF5.2103780631254288
aF2.1980210501527613
asg5
g6
(g8
S'\xc2_\xc9\x14\xdc\xc6\xf7?'
tRp331
sg10
(lp332
F12.167805511825136
aI2
aI2
aF2.6060947950862645
aF2.8313101135598857
aF4.152589515850992
aF2.7544776923785323
aF7.0107794083188404
aF5.8180917297232293
aF2.3521664270002343
aF0.045421970035346648
aF8.690220601157792
asg12
I100
sa(dp333
g3
(lp334
F10.56849367555094
aF1.9588107912683708
aI1
aF0.18260504871084615
aF1.9263217228587672
aF7.6270618428866728
aF1.4718645401245956
aF7.0134479963552376
aF7.2624880131800778
aF2.5296368618697467
aF5.6760841956984009
aF1.5304835298323836
asg5
g6
(g8
S'y\xc0\xc9\xd0\xe5\xef\x0e@'
tRp335
sg10
(lp336
F10.387781148261713
aI2
aI2
aF2.0282201921598606
aF3.4835603396113219
aF5.8972491819591486
aF0.40208245841986967
aF5.0817135694758209
aF3.632347464824035
aF3.7323552760340801
aF7.8866107457587207
aF4.2487658408375051
asg12
I100
sa(dp337
g3
(lp338
F10.046476794378249
aF2.2803659931530853
aI0
aF5.6666650000000001
aF5.7225076646457032
aF7.2648573719285139
aI0
aF5.8914419545444323
aF5.2401998643240777
aF2.7254547788269878
aF4.4001676389587425
aF4.2436649401719002
asg5
g6
(g8
S'\x8d\x12y\x12G\xe2\x03@'
tRp339
sg10
(lp340
F9.4105707748773408
aI1
aI1
aF3.177996518017344
aF4.8979275203086177
aF7.1242195441811615
aF4.525431076318835
aF4.5775661684616571
aF5.3769113094517502
aF0.69088970675851702
aF6.4519988737169136
aF3.3805252798906951
asg12
I100
sa(dp341
g3
(lp342
F10.119104195278894
aF1.0250534631398476
aI2
aF2.809664953896863
aF8.2918924863537793
aF0.78118431332979033
aF1.2637685168298134
aF6.7045410546238289
aF5.9926945252417614
aF3.0869316920502943
aF7.4993213951109077
aF5.9524101857745331
asg5
g6
(g8
S'i\x81\x9f%jT\x0e@'
tRp343
sg10
(lp344
F9.4899133601893606
aI1
aI1
aF3.3928677637383622
aF6.9958198084974565
aF2.0650305544177359
aF3.3591865363662721
aF7.2983690094694467
aF2.1763235870670643
aF2.8664362602183013
aF7.7884243570971003
aF0.63341956334768268
asg12
I100
sa(dp345
g3
(lp346
F8.2927653754875017
aI0
aI0
aF5.6666650000000001
aI0
aF5.0121557025105794
aF4.4380896943442725
aF1.1571197988567423
aF1.5765677356929828
aF1.311832386993236
aI0
aF3.2720912637861685
asg5
g6
(g8
S'\xda\x18p\x95\xa4>\x13@'
tRp347
sg10
(lp348
F9.8693753360420882
aI1
aI1
aF3.9836610245428785
aF0.23804258155219271
aF3.2815301120335056
aF4.8108177993134973
aF0.41332896923441009
aF0.29579197151024239
aF0.74221115046489761
aF2.1363845320314101
aF5.0648326505415637
asg12
I100
sa(dp349
g3
(lp350
F10.523051326341951
aF1.298631453961689
aI1
aF2.7479751409980486
aF2.3482797861085998
aF2.6993561564696815
aF2.5010352779772931
aF1.8743191091223979
aF4.3418529660519178
aF3.4851526173200682
aF2.9857416518484619
aF0.34890519951973953
asg5
g6
(g8
S'\n\x10r/I\xeb\x04@'
tRp351
sg10
(lp352
F10.618027024451891
aI2
aI2
aF4.8076117430769179
aF7.878952464584617
aF7.7622763127500782
aF5.6089012823362125
aF6.4175343777871641
aF8.4896242616037121
aF1.4096771868401305
aF0.96198353367129574
aF2.1477225110698006
asg12
I100
sa(dp353
g3
(lp354
F12.33333
aF2.5353519162730205
aI0
aF4.9019966043387369
aF8.2907836010854883
aF3.0321463759643268
aF1.8645620960680149
aF3.9706903785092655
aF2.7805868740932631
aF3.5572153442778549
aF0.03304484816578046
aF2.4416833223592045
asg5
g6
(g8
S'#\x81\xad\xd5\xf6)\xf9?'
tRp355
sg10
(lp356
F10.200758716636138
aI0
aI0
aF3.7768484255202166
aF7.2016601857498506
aF3.178362372116561
aF1.7060647524833585
aF5.8859032168168586
aF7.9273047064948479
aF3.4451417362064714
aF1.3119159924513575
aF0.88621602709277125
asg12
I100
sa(dp357
g3
(lp358
F9.1423617139507591
aF1.2903222810363717
aI0
aF5.2541171143496985
aF1.6183985571564059
aF4.9515334969092253
aF2.1666575196651126
aF5.8841385363153655
aF5.1066858188326973
aF3.4136652812772752
aI0
aF4.9606445461010189
asg5
g6
(g8
S'\x05?+\t\xf3\xac\xf4?'
tRp359
sg10
(lp360
F9.0638124325091187
aI1
aI1
aF3.4450065295034924
aF6.3441317059540161
aF5.4813316715264433
aF4.0417786852147817
aF1.9008514106952465
aF5.2983745170314362
aF4.1925887122181384
aF0.8660117589804962
aF3.1120666264646162
asg12
I100
sa(dp361
g3
(lp362
F11.316559874063216
aF1.678505178783136
aI1
aF3.4913338411504129
aF3.4742196625502997
aF0.4724440212216805
aI0
aF1.9955673884603287
aF5.63517819050635
aF3.5775110770019092
aF6.0505405354039556
aF5.708484319925617
asg5
g6
(g8
S'Z<\x9bX\xa0\xa1\x16@'
tRp363
sg10
(lp364
F11.475671459501791
aI2
aI2
aF5.309266117416005
aF3.8222809183228663
aF4.9112165596862356
aF3.0923415836840236
aF5.294089918664449
aF1.6312245279425919
aF3.470323011737884
aF2.0483116187025616
aF1.166933599279959
asg12
I100
sa(dp365
g3
(lp366
F7.8368281233464252
aI0
aI2
aF3.2179658132383944
aI0
aF4.3090725093071889
aF2.169542419057394
aI0
aF9
aF1.4429449750666299
aF2.0161633505282137
aF2.6250409866489228
asg5
g6
(g8
S'\x8b9\xe4\x90\x94\x12\x07@'
tRp367
sg10
(lp368
F9.2732882481799397
aI2
aI2
aF4.0358199148664307
aF4.1836094055906443
aF3.2937388987440857
aF1.0768236172311247
aF0.13641991527025821
aF2.8579053328302031
aF3.8239932274494404
aF0.52581396184830287
aF3.2787547610184467
asg12
I100
sa(dp369
g3
(lp370
F9.4395412279726081
aF1.0536624253454556
aI1
aF5.6666650000000001
aI0
aF9
aF3.8715783238400845
aF2.3021524010107153
aI0
aF3.0632876285527426
aF5.48121725295863
aF1.4441634513326629
asg5
g6
(g8
S'\xae\xdfil\xf3{ @'
tRp371
sg10
(lp372
F9.688198570423074
aI1
aI1
aF3.0480591572404303
aF4.7400681942719727
aF3.8933689485164513
aF1.5689493995406154
aF2.3223480328678563
aF7.9138843353319492
aF2.0105964883697727
aF1.3076679144417427
aF1.7986838550907076
asg12
I100
sa(dp373
g3
(lp374
F8.7461054956571811
aF0.45373308948566993
aI2
aF5.2255154827346715
aF2.9555923245853064
aF2.6135410441535853
aF3.2292308789480755
aF9
aF3.2254743204201413
aF2.7229278040450016
aF9
aF5.9689384019407576
asg5
g6
(g8
S'b\xee\x17\xb1`\xab\x01@'
tRp375
sg10
(lp376
F8.1465409387965071
aI0
aI0
aF2.4568143337708177
aF8.774546965866783
aF3.7879697676219779
aF3.4469522865666082
aF2.1419983146611634
aF4.4501095834567623
aF5.5002235037936051
aF4.8445585643585751
aF7.2959999649928768
asg12
I100
sa(dp377
g3
(lp378
F11.342856496920001
aF3.759975392124165
aI0
aF1.334615430659519
aF8.116055933817643
aF2.9460922713871671
aF5.1688947395229716
aF6.0340935996781679
aF2.9701175172408671
aF0.97793123793414194
aF8.229653172332684
aF9
asg5
g6
(g8
S'\x8c\xc35\xef\xad\xc3\xe2?'
tRp379
sg10
(lp380
F9.8716874235344836
aI2
aI2
aF4.1257953228934259
aF5.9408593843560382
aF3.4425005677466411
aF0.79806411110553743
aF8.3091321276534309
aF6.9447029456926597
aF1.3077958902196811
aF7.5821069074786793
aF3.1869832260406068
asg12
I100
sa(dp381
g3
(lp382
F11.131268470916481
aF1.7351388267022232
aI1
aF5.6666650000000001
aF3.0284471077602699
aF3.7573376154939093
aF3.845036376673209
aF1.2642539179011596
aF4.3373035603428649
aF1.5181055270630244
aF0.87327999774306764
aF1.8687503072692744
asg5
g6
(g8
S'\xb4\xb9\x01J?\x8d\x0c@'
tRp383
sg10
(lp384
F10.848027107866962
aI2
aI2
aF1.1546404468405003
aF1.9224212796958287
aF6.8223783505194913
aF3.3477335025723161
aF0.24865908732924635
aF5.0082184439784863
aF0.37843379780871972
aF0.77028510664101635
aF3.64723356091829
asg12
I100
sa(dp385
g3
(lp386
F11.561267424103569
aF1.1826086386553307
aI2
aF5.6666650000000001
aF5.8648963048516514
aF3.3230551099185228
aI0
aF8.2062429377756363
aF5.7083222927609416
aF0.46001486314480428
aF7.7626216221375053
aF2.7982464364638937
asg5
g6
(g8
S'\xfb\xd7(y\xab\x14\xf4?'
tRp387
sg10
(lp388
F10.953402905190551
aI1
aI1
aF4.2505932783577229
aF7.542197565538804
aF7.1153753832331645
aF0.0047544495844430469
aF6.8563367130635751
aF2.0589718322704371
aF2.8167839504316734
aF8.9512784074157992
aF7.4179947408161846
asg12
I100
sa(dp389
g3
(lp390
F5.1200593761691842
aF0.20662759814754761
aI1
aF3.7719969280617209
aF1.1754043369599021
aF0.13039851005184344
aI0
aF5.2239830582760964
aF5.1383893445538042
aI0
aF9
aF0.2725674917104372
asg5
g6
(g8
S'\x9a\x9c\xf9\x1b\x7f\xd2\x17@'
tRp391
sg10
(lp392
F9.995708487783947
aI0
aI0
aF0.31474063716034567
aF8.2459537245449752
aF0.016147416382858659
aF3.5188890310450485
aF1.0937909755755697
aF0.25701149480745489
aF4.5755924793870557
aF5.1153551887212334
aF1.608364209377162
asg12
I100
sa(dp393
g3
(lp394
F8.4075614988585059
aF0.9340965776247323
aI1
aF2.3203447591696174
aF8.9661589964472359
aF3.8461244166410391
aF1.4792553125555723
aF6.2197449718244915
aF5.9191488711438414
aF1.923286420305871
aF2.2169877375998404
aF0.93953443925568902
asg5
g6
(g8
S'\x98\xa6\xaa-\xc4\n\x14@'
tRp395
sg10
(lp396
F8.979954915978821
aI1
aI1
aF0.70797384482349779
aF3.4666072326767301
aF5.553267701981266
aF2.5061290818418649
aF6.0753669807902133
aF1.0171150418994537
aF3.3385820781239861
aF0.76294654002745776
aF1.9950157269176154
asg12
I100
sa(dp397
g3
(lp398
F9.6120783144101605
aF0.46786188168355858
aI2
aF4.2099094005134781
aF3.8036790153622078
aF3.252360697399884
aF1.6175635821271863
aF3.4446241755703793
aF1.851474514796154
aF2.9021919569383301
aF5.3746171983532935
aF5.2478347584690708
asg5
g6
(g8
S'\x1b\xd2\x06\xba\x83r\xf1?'
tRp399
sg10
(lp400
F9.0251118719511449
aI0
aI0
aF1.9897165926085667
aF5.472494048811237
aF5.8368226448196321
aF3.1137799942526909
aF2.7852797988982605
aF0.89841121636677068
aF1.251769842734983
aF6.4071887812130086
aF4.4584137731252396
asg12
I100
sa(dp401
g3
(lp402
F10.867047798018687
aI0
aI1
aF2.9021852376846966
aF6.1482691672697491
aF8.7078295060516382
aF2.6919160493608776
aF8.1856161399153731
aF3.0568721650229036
aF1.2287701225129144
aF6.4550068793254614
aF7.9680384419199664
asg5
g6
(g8
S'_\xce\\\xbe\xb2\x12\x02@'
tRp403
sg10
(lp404
F11.250026871982898
aI1
aI1
aF2.4221408780215534
aF1.8103812042064371
aF7.7690297321714361
aF3.2638237609946565
aF8.9638501756222979
aF5.099160504519487
aF2.004206555918886
aF8.917902505738363
aF4.2340862396397716
asg12
I100
sa(dp405
g3
(lp406
F9.6745281404187509
aF2.0555490845836721
aI0
aF3.9809699858255514
aF7.6176286056086306
aF4.1309328406806021
aF5.6666650000000001
aF0.060016804503804977
aF6.8938989366579744
aI0
aF6.8345199529182832
aF4.6992310171580209
asg5
g6
(g8
S'J\xafd\x94.s\x0f@'
tRp407
sg10
(lp408
F9.5379961667654918
aI2
aI2
aF2.1290275060178394
aF2.7337731249046708
aF8.5760472535844965
aF1.9137288758191202
aF1.6851048989800188
aF8.8710438005572243
aF0.20644684224223023
aF8.6938739926868411
aF4.3530323203811365
asg12
I100
sa.