(lp1
(dp2
S'guess'
p3
(lp4
F12.33333
aF4.1569223501065897
aI1
aI0
aF2.465632573431054
aF2.5695193637864708
aI0
aF8.5010350592372408
aF2.6094989063201011
aF2.9609423285297929
aF5.817022398911913
aF3.054254356972081
asS'guess_score'
p5
cnumpy.core.multiarray
scalar
p6
(cnumpy
dtype
p7
(S'f8'
I0
I1
tRp8
(I3
S'<'
NNNI-1
I-1
I0
tbS'J2 O\xc9W\xf8?'
tRp9
sS'target'
p10
(lp11
F9.8960013723754461
aI1
aI1
aF3.5644815717077578
aF5.1272729824660441
aF4.2157891369583185
aF0.55449814383437257
aF7.6837244442147989
aF1.4522214287687278
aF3.8274771470471771
aF0.61532231743087551
aF4.9517571886684477
asS'num_samples'
p12
I250
sa(dp13
g3
(lp14
F9.1051225970862628
aF3.8619942079183214
aI2
aF5.6666650000000001
aF8.3607059451530112
aF4.0554651725770556
aI0
aF4.8089764171827731
aF4.8685375743569868
aF5.6666650000000001
aF3.8795389549945094
aF4.633843089596704
asg5
g6
(g8
S'XT6\x08\x16Y\x0f@'
tRp15
sg10
(lp16
F9.5492384054613453
aI2
aI2
aF4.2463273905703103
aF4.7601960056134587
aF8.0253805908815963
aF2.9359454958501572
aF6.2356421100540871
aF8.732484830305518
aF2.111475155526886
aF5.3983499733626266
aF5.272962090461637
asg12
I250
sa(dp17
g3
(lp18
F10.545778604057769
aF1.5228569777992411
aI1
aF2.4568524985676841
aF7.1366733360532546
aF7.0163168443082098
aF2.1977395125297212
aF0.81411816881328658
aF1.8946217111168278
aF3.7226706960588025
aI0
aF5.4295674060499461
asg5
g6
(g8
S'\n}\xa7\xdd\x04\xd4\xed?'
tRp19
sg10
(lp20
F10.210858784554361
aI2
aI2
aF4.0508883461015683
aF6.1723285878481757
aF8.7257737743440416
aF1.805462403316477
aF3.6574566158973298
aF2.0496581510242358
aF2.9244665444472746
aF1.0902623638778777
aF1.3803447157556661
asg12
I250
sa(dp21
g3
(lp22
F8.7460926212552152
aI0
aI1
aI0
aF5.9340055614162432
aF9
aF5.6666650000000001
aF3.5486300605129335
aF2.0048227936955993
aF0.78569436579259033
aF5.9029153176874543
aF4.7748641945750325
asg5
g6
(g8
S'\x00d\x15\x9d\xbf\x0c\xf5?'
tRp23
sg10
(lp24
F10.511355071041272
aI0
aI0
aF4.4237543707042946
aF3.4380354015554162
aF2.4216897274168918
aF2.0924491588571033
aF6.5842100430657213
aF5.0856959616948618
aF2.1111629802359935
aF2.416355798592015
aF3.9557905608276425
asg12
I250
sa(dp25
g3
(lp26
F9.6613510967635303
aF1.272613667012944
aI0
aF5.6666650000000001
aF2.6620694444736031
aF4.6219559840522937
aF3.6458739683227339
aI0
aF4.9059622845862503
aF1.834617818333429
aF8.8605628320445469
aF9
asg5
g6
(g8
S'\xcdN0\xa9D\x10\x08@'
tRp27
sg10
(lp28
F10.247247896454549
aI1
aI1
aF5.3225062491374642
aF1.8509501214441295
aF3.9439147949249653
aF3.3320139236932818
aF2.5908850425776655
aF2.7266826547000109
aF4.9831199032420672
aF5.4033014240685429
aF8.0019969965959401
asg12
I250
sa(dp29
g3
(lp30
F12.33333
aF2.1103507602915186
aI0
aF3.9938505056933904
aF2.7270299886258091
aF7.6649894116594153
aI0
aF2.127970626659986
aF4.7983673463486314
aF4.2511920263103331
aF8.6361361031357173
aF3.1916946178312209
asg5
g6
(g8
S'\x92\xfb\xf6J/\x15\x0e@'
tRp31
sg10
(lp32
F11.710002772637097
aI2
aI2
aF1.0483270659533543
aF8.129399030587237
aF8.2774261320368261
aF2.1518975969487411
aF0.090374217745505359
aF3.9449368966439087
aF0.46466477932778982
aF3.8847305384351545
aF8.2521566558539128
asg12
I250
sa(dp33
g3
(lp34
F8.2061164487962799
aF3.6228268892708768
aI2
aF4.628991626302426
aF2.8600671700129778
aF1.7858574203056587
aF2.7178227993934976
aF5.404856498850056
aI0
aF5.6666650000000001
aF9
aF6.4451098172555135
asg5
g6
(g8
S'\x14\xc0_\xc7Y}\x11@'
tRp35
sg10
(lp36
F9.4248555079693457
aI2
aI2
aF0.70324457778226668
aF6.6271331417284971
aF2.843679409394599
aF2.9960231994303048
aF1.789692993587483
aF0.35018103509878862
aF3.3771770193440673
aF7.3061536249210839
aF3.1274113886763186
asg12
I250
sa(dp37
g3
(lp38
F9.226938901692229
aF4.7341782326038455
aI0
aF5.6666650000000001
aI0
aF5.3239945797683825
aF4.3012775492797122
aF6.9501107139174989
aF9
aF5.2764567803685729
aF2.8498657067915971
aF1.7332417012579713
asg5
g6
(g8
S'l\xadu*\xe7O\x0c@'
tRp39
sg10
(lp40
F9.5670455601651447
aI2
aI2
aF4.737832796273624
aF3.6656601098006871
aF4.3153308478053845
aF4.1080474869841099
aF3.6003663021714334
aF3.789870745889631
aF3.9697171701392366
aF0.97670530543551459
aF2.3759370976162164
asg12
I250
sa(dp41
g3
(lp42
F8.5066152034715579
aF1.6004201229909054
aI1
aF2.8955728427529546
aF0.4476450917073993
aF4.456268810229874
aF5.6666650000000001
aF3.4295283526265781
aF2.030059472555604
aF2.854387645633635
aF7.5749850684522499
aF1.8494247808479811
asg5
g6
(g8
S'\xbc\x15YY\x93)\x01@'
tRp43
sg10
(lp44
F9.5869297348251692
aI2
aI2
aF2.2846878389896097
aF6.6466057985060791
aF3.812536235893802
aF1.8294302877964497
aF3.5755262399030849
aF3.8627617695306951
aF4.3300738274371033
aF2.4812296495045474
aF3.4144612110659205
asg12
I250
sa(dp45
g3
(lp46
F9.1930564904123635
aF2.6754199304619406
aI1
aF1.1795472466438897
aI0
aF7.7441230133256367
aF2.147505886752862
aF5.7986871835574778
aF2.731317324263284
aI0
aF6.7814043597832141
aF5.118906027713237
asg5
g6
(g8
S'A\x87[\xf5\x89\xdd\x02@'
tRp47
sg10
(lp48
F9.1418669824172021
aI2
aI2
aF4.1447305453450545
aF2.703100571572798
aF2.1837766203236599
aF3.963507671686203
aF8.3508379342646375
aF6.5530407938538593
aF0.78247408729940904
aF5.9426835674972152
aF4.6488507655892093
asg12
I250
sa(dp49
g3
(lp50
F9.3822949012403374
aF4.2673580242795701
aI0
aI0
aF7.0434974700571313
aF7.4358223436049045
aF0.98693678078830915
aF6.0757776421808991
aF4.0141024733970854
aF5.6666650000000001
aF4.5066664559183902
aF0.63065339116741193
asg5
g6
(g8
S'\xfd\x9b\x97\xc7:\x1d\x18@'
tRp51
sg10
(lp52
F9.5713191728222107
aI1
aI1
aF0.6406037962505875
aF7.3133795567035893
aF7.0321243552472383
aF4.0430700245348845
aF3.9140961003056751
aF4.2414865591913156
aF2.7369675261498227
aF1.2730204346135365
aF8.3386744475053742
asg12
I250
sa(dp53
g3
(lp54
F10.446670491698285
aF1.5643857136097215
aI2
aF5.6666650000000001
aF4.7230736250850063
aI0
aF4.6760986519714658
aF5.2955860269361388
aF2.6478606918229781
aF2.8899935521197153
aF3.6717857929824698
aF0.5236776382778805
asg5
g6
(g8
S'\xf6px\xa0\xd6\x0b\xef?'
tRp55
sg10
(lp56
F10.782570562747873
aI1
aI1
aF3.9613752402904097
aF6.8660990076654445
aF0.58141421310879382
aF3.7137058244075765
aF3.7766464874292973
aF1.025455367318366
aF1.7211541420111161
aF6.595516178759528
aF6.108240447304091
asg12
I250
sa(dp57
g3
(lp58
F9.824812822194275
aF0.93570362764248394
aI1
aF4.0356301268244481
aI0
aF6.573419158798778
aF0.86464923238474711
aF0.13958816118849876
aF4.6797781078198035
aF1.016933546680892
aF3.5997759710224919
aI0
asg5
g6
(g8
S'kD\x85\xa5\x9f\x04\x14@'
tRp59
sg10
(lp60
F10.328561816872204
aI1
aI1
aF0.66169608751920506
aF4.0953415313755812
aF0.49714930972244342
aF4.339389444177824
aF1.030681479053916
aF1.1901784058401681
aF4.3488847680927609
aF2.2724284251182252
aF6.4005622263943245
asg12
I250
sa(dp61
g3
(lp62
F8.8233273976311182
aF1.1339712179767729
aI0
aI0
aF6.1582962610403884
aF9
aF5.6666650000000001
aI0
aF6.0195975481996289
aI0
aF5.165791139579734
aF5.6965359661466364
asg5
g6
(g8
S"\xe6\x93\x12G'\xe2\x13@"
tRp63
sg10
(lp64
F9.928860968797677
aI2
aI2
aF4.7932132688957854
aF2.6519162938309417
aF3.504498138518803
aF4.7256723043678148
aF4.3840081669853124
aF2.962711743667878
aF1.6903520260612492
aF6.6006966398801268
aF4.3463593762017423
asg12
I250
sa(dp65
g3
(lp66
F12.33333
aF7.0011942097060542
aI1
aF0.66359319964688934
aF3.2612207974726228
aI0
aF3.9096433117425988
aI0
aF7.0893009350292395
aF5.6666650000000001
aF4.6973728693767285
aI0
asg5
g6
(g8
S'X\x1f\xdb\x19\x0f\xc8\x13@'
tRp67
sg10
(lp68
F11.422429308631738
aI0
aI0
aF2.7756616606610351
aF4.1721305376234801
aF4.6884473628985477
aF0.39479984164907073
aF3.2060232662311634
aF0.70329288055833794
aF3.7207994346579696
aF8.0698943267644712
aF4.0672014099177582
asg12
I250
sa(dp69
g3
(lp70
F10.36248222368368
aF0.7657639547892543
aI1
aF2.3504679185730417
aF6.6731258925378221
aF2.3109259597132561
aF3.8194008824572125
aF7.5058486447432138
aF5.2185120531244342
aF3.4115171406008895
aF3.3947087077991354
aF9
asg5
g6
(g8
S'\x97\x15\x9f\x1c>b\x10@'
tRp71
sg10
(lp72
F12.064198037114295
aI2
aI2
aF5.387230288434627
aF8.7416892495754546
aF7.861181362256306
aF0.18149466830013161
aF2.8563734727854948
aF5.0326587034760646
aF3.7033832105216975
aF7.6406315899034052
aF1.1264345300426495
asg12
I250
sa(dp73
g3
(lp74
F10.332682645255266
aF5.5774569940872105
aI1
aF5.0886147849875663
aF5.9371543119357391
aF7.4457945379743515
aF5.5633243190827217
aF4.1886933919572424
aF3.8587610036004927
aF4.2356799703907058
aF3.8127378387447348
aF2.2453938895768366
asg5
g6
(g8
S'\xad\xbd\xa7m\xdb\xa9\x19@'
tRp75
sg10
(lp76
F8.3121834657172826
aI1
aI1
aF5.5083124822321619
aF2.0671602485939347
aF0.83343116166310405
aF1.3812254976972178
aF3.4912999611749593
aF8.6740655813352276
aF4.0525499331318828
aF3.1374546869781099
aF8.7616565106137045
asg12
I250
sa(dp77
g3
(lp78
F7.7521035058934773
aI0
aI2
aF3.5400147500090449
aF6.0192045855499865
aF5.1557138317838618
aF1.2553370696858011
aF2.4849419389595604
aF2.4921989816119239
aF4.3031005305660903
aF6.728183326397617
aF8.5943080632724644
asg5
g6
(g8
S'\xaa"\xfa\xe7Kw\r@'
tRp79
sg10
(lp80
F11.412826627807204
aI2
aI2
aF5.4798149898487498
aF6.2738757129090921
aF2.0056321075515431
aF0.91100893749349066
aF3.2961646052197366
aF2.3325433580320865
aF1.9400867291733268
aF6.2724774205727698
aF5.8059697959272141
asg12
I250
sa(dp81
g3
(lp82
F9.1336675242372412
aI0
aI0
aF2.0843744857404496
aF5.9579498678591847
aF4.8246376005623492
aI0
aF3.5173586534053998
aF9
aF5.6666650000000001
aF3.8654921134440556
aF3.3655647132401572
asg5
g6
(g8
S'7\xfb\xb7\xae\xc7(\xf1?'
tRp83
sg10
(lp84
F9.1892950404378144
aI0
aI0
aF2.7908519164286356
aF5.2991318516243116
aF4.3587937900939249
aF5.628754713784458
aF4.4964801167055057
aF6.5646295350404387
aF2.6564645357463146
aF2.9672391706702497
aF5.9321061482034017
asg12
I250
sa(dp85
g3
(lp86
F10.034493298890963
aI0
aI0
aF3.4451163435507945
aF5.2436025281987666
aF2.6983728132551419
aI0
aF4.6442617655148624
aF1.5868926946266955
aF4.4849905004310946
aF9
aF4.5244376642853519
asg5
g6
(g8
S"\x99\xa36\x87N'\x13@"
tRp87
sg10
(lp88
F11.14346722488979
aI0
aI0
aF2.0530061927739571
aF4.660921214466847
aF7.2427261774997165
aF0.41594331196962059
aF4.092989044928161
aF0.64985829469516443
aF1.4238231138982158
aF6.7027565296364404
aF1.1096279411964787
asg12
I250
sa(dp89
g3
(lp90
F9.1715603620001254
aI1
aI1
aF1.8733555982473606
aF1.4747621457891427
aF2.2388917627070555
aF2.9073736445556988
aF8.9093613130242488
aF8.8362250784350937
aF1.7436260084981856
aF5.8107431789807027
aF3.4354526649160682
asg5
g6
(g8
S'@\xe8\xa0\x0b\x95\xba\x02@'
tRp91
sg10
(lp92
F10.835718023544647
aI0
aI0
aF1.0430984640492313
aF7.7940679988807986
aF7.9636601265698292
aF3.0194986240116033
aF0.032225951148694088
aF8.4107705372836978
aF1.1666744649019947
aF8.3301997614324552
aF3.4187253851877513
asg12
I250
sa(dp93
g3
(lp94
F8.7316329517049009
aI2
aI2
aF5.4934066255788885
aF2.2844335592422444
aF1.7281172981658519
aF0.099506890810512352
aF8.3918076181456094
aF8.0413653404023187
aF0.67180958399534274
aF1.8269126180280315
aF8.5156761975096913
asg5
g6
(g8
S'\xf8\x1a\xadC\x80\x1b\x19@'
tRp95
sg10
(lp96
F9.0711921381005638
aI2
aI2
aF4.4791674781230251
aF0.54024233593556503
aF2.7033933614693324
aF3.7022789165191599
aF7.9621410866775939
aF5.5623039696006549
aF3.4778223015383309
aF2.362985415480201
aF2.9265934623701555
asg12
I250
sa(dp97
g3
(lp98
F11.671451359848277
aF4.6538352531340079
aI0
aF4.8885342008102581
aI0
aF6.7133325177911818
aF5.2819586753591103
aF8.1748509910611169
aF0.85766814433711858
aF1.9050882244694285
aF1.778932954174947
aF2.4914092561639656
asg5
g6
(g8
S'\xa2\xf6\x85\xf0\x98+\x14@'
tRp99
sg10
(lp100
F9.595661576671132
aI1
aI1
aF5.5451430849786361
aF8.9660837012393024
aF0.70798518652257425
aF2.6009101992925934
aF0.95266524328687774
aF2.3216615260489828
aF1.4937100311526841
aF6.6579182039586806
aF8.5709646684341187
asg12
I250
sa(dp101
g3
(lp102
F10.724885639178677
aF2.7572278769027125
aI2
aF4.5648068264972244
aF9
aF5.8972913772413396
aI0
aF8.0079874399360804
aF4.7739571004291586
aF5.4091666397785483
aF4.0064093657532496
aI0
asg5
g6
(g8
S'\xb93\x14\x93t\x94\x17@'
tRp103
sg10
(lp104
F8.9197001505378104
aI2
aI2
aF4.0749716423753242
aF4.1393153302609464
aF8.7593761684734499
aF4.1726552663215788
aF5.2082275280307684
aF0.67936500878234207
aF3.6693561816574354
aF2.7102006142310522
aF5.4812082474989143
asg12
I250
sa(dp105
g3
(lp106
F12.33333
aF2.3585545239883663
aI0
aF1.5567029145656881
aI0
aF6.1300049218779344
aF4.1655456403237121
aF7.693045492323054
aF6.8519936023768455
aF2.2041541216753706
aI0
aF9
asg5
g6
(g8
S'\x0b\xbf\xc1\xa9\x84f\xf7?'
tRp107
sg10
(lp108
F11.184679375034097
aI1
aI1
aF2.3217047295244266
aF4.4339351811302237
aF8.1947566478032119
aF0.33798683666521717
aF0.24010273634569723
aF5.3579476266126846
aF0.57316246550943417
aF1.3434935209102319
aF8.511654041481707
asg12
I250
sa(dp109
g3
(lp110
F10.989594584189712
aF8.3253047625364367
aI0
aF5.6666650000000001
aF1.4934135757557132
aF1.4366437016964113
aF4.7906298700123431
aF4.9508480305187277
aF8.7081541775415552
aI0
aF2.7638313295088524
aF2.562268800074722
asg5
g6
(g8
S'\xbd\x93$\xa3\x0f\xe9\x18@'
tRp111
sg10
(lp112
F10.210006764989302
aI0
aI0
aF0.79960682846336528
aF3.1013804071865154
aF4.9734746513219239
aF3.3143009752137123
aF0.89299382281974959
aF4.1500262205224372
aF2.9820229211333613
aF0.51801392076029174
aF6.5883708973647535
asg12
I250
sa(dp113
g3
(lp114
F12.33333
aF2.9974815632244685
aI0
aF5.6666650000000001
aF5.5758537112180306
aF7.7640240648180505
aF0.39848632766221637
aF3.2508114741800824
aF4.2033144207831601
aF0.204378778351479
aF7.8979480910648405
aF7.215404935659679
asg5
g6
(g8
S'\xa3\x9e\xcb\xdb\x9b\x05\x01@'
tRp115
sg10
(lp116
F9.6790383315722863
aI1
aI1
aF2.8137763844193056
aF7.695992110771682
aF7.5259579298232255
aF4.2735008079592331
aF6.9001190658561793
aF6.8515073760979437
aF0.7454826385710126
aF3.1637699227512277
aF1.9622851889168067
asg12
I250
sa(dp117
g3
(lp118
F11.524047783736085
aF3.6566624722548466
aI0
aF5.6666650000000001
aF0.34894750686041748
aF2.0763249826505206
aF3.8562333663694983
aF3.0696705651081651
aI0
aI0
aI0
aF4.005750423198692
asg5
g6
(g8
S'v\xe8bN\xb9\x87\x04@'
tRp119
sg10
(lp120
F10.253187468498647
aI2
aI2
aF3.7536321808587676
aF7.374388132505274
aF7.9934562124087769
aF0.11219267594103595
aF4.1666248570906426
aF2.212803629506773
aF3.8372601122352812
aF0.90855541767706482
aF0.3658087727848639
asg12
I250
sa(dp121
g3
(lp122
F12.33333
aF4.6440763393491515
aI2
aF0.95356776007957755
aF0.36216546257242466
aF7.8301879337272693
aF5.3779700908995096
aF6.4365631118436415
aF9
aF4.8350087357377065
aF6.1627439976610123
aF3.2841486137956828
asg5
g6
(g8
S'y\x02x\xe1I\xa5\x1c@'
tRp123
sg10
(lp124
F9.8535296103091934
aI2
aI2
aF5.6541088355378486
aF3.66321098188615
aF3.5485841514874457
aF4.6342693215642754
aF1.1138911133890741
aF6.1396711244240771
aF0.36718970642270848
aF6.9962941612586205
aF8.8185543601956642
asg12
I250
sa(dp125
g3
(lp126
F12.33333
aF2.6081618727110638
aI2
aF5.6666650000000001
aF5.777551290325011
aF1.476907091946051
aF2.8927490763255159
aF5.4125957735734715
aF8.0119735397822947
aF2.6581555136670416
aF2.4801241239160343
aF3.3836858544689488
asg5
g6
(g8
S'\xe2B\xe5\xfd\x87\xfe\x0e@'
tRp127
sg10
(lp128
F12.185531769856578
aI0
aI0
aF2.8974412898117734
aF2.8113563890593518
aF7.2363595861489571
aF4.5135655651254583
aF3.3148759357431197
aF4.1429352615193293
aF2.0684174077784099
aF6.2655291881046979
aF5.001596599752423
asg12
I250
sa(dp129
g3
(lp130
F11.011988084081452
aF7.8190400892203362
aI0
aF4.8397354302557751
aF9
aF4.8003812975838231
aF4.099318920476521
aF5.8741862209533879
aF6.3366482119757235
aF2.0834946101861012
aF3.2553277892838235
aF4.7403408462605832
asg5
g6
(g8
S'\x95\xe4\xf0\x11ws\r@'
tRp131
sg10
(lp132
F10.733656346582507
aI2
aI2
aF1.3203960016174832
aF8.7258550516739053
aF8.0485741782398925
aF5.2003126500761043
aF6.0608592049727124
aF6.2437823080470256
aF1.3833398173063483
aF7.9640942616729991
aF5.5303013870567659
asg12
I250
sa(dp133
g3
(lp134
F10.11884656134529
aF6.1191464332819425
aI0
aF3.8153596307116384
aF5.8542396035272199
aF5.8982333607765067
aI0
aF7.7468415568212414
aF0.67045057970203215
aF1.0295471548585182
aF4.4356280869872107
aF6.212381884999929
asg5
g6
(g8
S'%\xef\x16[j\xa7\x00@'
tRp135
sg10
(lp136
F9.2787103190633129
aI0
aI0
aF4.6380734732037698
aF7.3393289187448438
aF4.6935270294120484
aF0.32676866134790933
aF8.0686295372338019
aF0.52953058049235902
aF1.9196673762805452
aF4.2859624107035073
aF1.0634665567823465
asg12
I250
sa(dp137
g3
(lp138
F9.277599059153335
aF4.1532848702708431
aI2
aF2.2453039893958686
aF2.1875760293575461
aF0.44040451055907448
aF2.8519557797576436
aF5.8986343587130809
aI0
aF0.14836742475751574
aF1.1448207483466386
aF3.0574031445230019
asg5
g6
(g8
S'\x87i\xed\xc8\xfc\xd9\x0c@'
tRp139
sg10
(lp140
F9.1164629523716201
aI2
aI2
aF2.9485903887789844
aF6.880133001401223
aF4.7147219036919532
aF1.0530890999392719
aF7.2044360006745629
aF1.1801149151512114
aF2.8128529706358072
aF2.3830041812717218
aF0.96603466378583824
asg12
I250
sa(dp141
g3
(lp142
F10.40711953137045
aF4.2327307785908665
aI1
aF1.0595028198289687
aF0.82202194431964482
aF2.6990921534309402
aF3.585111598776821
aF4.2794874697672114
aF8.2088185613903644
aF5.2084893227173623
aF8.9609165799450903
aF5.7405821780075561
asg5
g6
(g8
S'\x15\x96\xac\xc8\x05\xd6\xfb?'
tRp143
sg10
(lp144
F7.8678355002104841
aI2
aI2
aF5.5262651198567116
aF2.3216596447470188
aF7.5439452062025207
aF1.6181747240404882
aF4.6422331536595651
aF6.1643134970821158
aF3.2146845563805893
aF2.5870312010259364
aF8.3672838512260999
asg12
I250
sa(dp145
g3
(lp146
F10.147102689177299
aF1.1849525512010421
aI0
aI0
aF0.049704881475585605
aF3.9009550637116144
aF3.7484590053989724
aF6.7371656531912292
aF4.5030899963964703
aF2.7215163721161657
aF5.1023938178070747
aF4.0692517493686067
asg5
g6
(g8
S'F\xd5>\t\xbb\x84\x17@'
tRp147
sg10
(lp148
F9.813483111960041
aI0
aI0
aF4.7962063862905335
aF1.068393226410012
aF0.65617362302850135
aF2.6980534469321293
aF6.945598131813675
aF3.405653032107689
aF0.74120835716702227
aF0.82835364267919331
aF4.4284366511222943
asg12
I250
sa(dp149
g3
(lp150
F7.1845666053299349
aF2.1003879462363679
aI1
aF5.6666650000000001
aF4.8119712047869703
aF5.0352853116069145
aF0.97274552355007737
aF5.6563007788848774
aF1.8388955951184256
aF5.6666650000000001
aF1.9200087516852844
aF3.7232379135300571
asg5
g6
(g8
S'\xdf\xa8\xe3\x9d\xd0J\x11@'
tRp151
sg10
(lp152
F8.869988400957503
aI1
aI1
aF3.8161025874230576
aF2.4718139238138903
aF7.009759061511696
aF4.8788236555927771
aF6.3668775862841791
aF3.5495955676201074
aF3.1918283360372759
aF6.4384021944262386
aF4.4173318997715576
asg12
I250
sa(dp153
g3
(lp154
F8.7353793438963265
aF2.4197798004087216
aI1
aF1.1037111408852462
aF9
aF6.5261719517111603
aF0.11972234930357195
aF3.2524048252697573
aF3.7529223156628584
aF1.3037892774142603
aF2.0789905718920036
aF4.6282027289074179
asg5
g6
(g8
S'kTr+N\xdc\x16@'
tRp155
sg10
(lp156
F9.8421702046294115
aI2
aI2
aF1.6920672540137578
aF2.5558365872978905
aF1.6095457175375383
aF0.49623501739011194
aF3.781927331468808
aF5.9276418133842341
aF4.022844896682801
aF3.6744977264561536
aF7.9062726982567728
asg12
I250
sa(dp157
g3
(lp158
F8.7066441913727175
aF0.56681273394080767
aI0
aF0.11888624257478941
aF2.4225137434755131
aF6.2991809739927218
aF5.6666650000000001
aF0.40133499332344502
aF8.4199890399335828
aF2.2643054285269058
aF2.7280859021209394
aI0
asg5
g6
(g8
S'?\xbfX\xa4C\xe4\x06@'
tRp159
sg10
(lp160
F10.454166372509853
aI2
aI2
aF5.6509943087787375
aF7.4713096636649814
aF5.9667705702595892
aF0.2314725323309603
aF2.9784227557197993
aF2.0304467236468606
aF1.2535837648567543
aF1.0598713850938797
aF4.0533839416145963
asg12
I250
sa(dp161
g3
(lp162
F10.48252800748215
aF2.3746134853281848
aI1
aI0
aF1.8811384248936653
aF6.2054372046266337
aF2.4522001606148072
aF9
aF7.4231281069863613
aF0.14036505607819727
aI0
aF2.7620772782973111
asg5
g6
(g8
S'\xd5\x9b^\xb1\r\xc6\xfa?'
tRp163
sg10
(lp164
F9.6235000790489398
aI1
aI1
aF2.8055124637434083
aF7.235258638224809
aF2.7175049429955611
aF3.2085801564903051
aF8.0775037482051264
aF6.249671715467418
aF0.33141928981937901
aF1.3133742563281618
aF0.7519946935030376
asg12
I250
sa(dp165
g3
(lp166
F7.8396862547255148
aF3.8664630308212899
aI1
aF2.8778083626158408
aF3.1133108197364434
aF2.5741032927843075
aF4.8284034145185224
aF8.4516714688720249
aF9
aF5.6666650000000001
aF8.1128711274034337
aI0
asg5
g6
(g8
S'\xadG8\xce\xf4\x1a\x10@'
tRp167
sg10
(lp168
F8.1899327115206422
aI1
aI1
aF3.719373131536504
aF1.0147171498127077
aF6.9481324822885089
aF1.8977009620480896
aF8.810852035959126
aF6.2626178004972113
aF5.0751025044793687
aF6.9473468232111477
aF0.13140471218807825
asg12
I250
sa(dp169
g3
(lp170
F11.311826940574345
aF4.7443721667341165
aI0
aF1.5055619376356322
aI0
aF5.8676323391198073
aI0
aF3.1469506091703869
aF1.9222274833338748
aF5.6666650000000001
aF0.47848622819598213
aF2.2086937418961954
asg5
g6
(g8
S'b\x90\xf9>\xc9\xe5\x01@'
tRp171
sg10
(lp172
F9.6121863390761515
aI2
aI2
aF3.5284256235021969
aF3.0836249811052787
aF6.0071911792047654
aF0.56493839328304707
aF2.7183434072392485
aF1.303226241466823
aF0.82275033977119616
aF0.60657269759987842
aF7.9099111776342088
asg12
I250
sa(dp173
g3
(lp174
F10.657035089939789
aF1.4926115683478267
aI2
aF1.6719692582590577
aF3.9169099642098768
aF2.7999322646413729
aF0.54851341360636452
aF8.9309786509164244
aF1.1700911593443803
aI0
aI0
aF4.1531586079517098
asg5
g6
(g8
S'\x9c\x852\xbd\x1bK\xfd?'
tRp175
sg10
(lp176
F11.564601514103069
aI1
aI1
aF2.4048593250693115
aF2.036787466700634
aF8.5225074449561031
aF0.65314015114769164
aF0.33153683550261159
aF5.8310904878311467
aF0.32652586989776239
aF7.5377744934845126
aF1.3127215143037363
asg12
I250
sa(dp177
g3
(lp178
F9.3256591834575406
aF4.7638246860597873
aI0
aF2.7888488844242398
aF2.963546800356474
aF9
aI0
aF1.2206822586748085
aF9
aF3.6090335025574944
aF6.636977102885818
aF0.50165648018609543
asg5
g6
(g8
S'2Ve\xa0\x04\xd0\x11@'
tRp179
sg10
(lp180
F10.510147990071889
aI2
aI2
aF4.4529679698644422
aF5.1014514313694388
aF2.1411761900529429
aF0.97250609447440772
aF7.3196428451600992
aF2.1983063189472065
aF3.6716616253385186
aF0.29744775367106235
aF5.5441300677024907
asg12
I250
sa(dp181
g3
(lp182
F12.33333
aF6.2298847529766332
aI2
aF4.1669516138926959
aF6.2753565574911594
aF9
aF0.94000083551044011
aF3.9248592134436793
aF8.0588901373140036
aF2.246580273051332
aF1.9395551064749135
aF1.4276291821758957
asg5
g6
(g8
S'!\r\x80\xbc\xa8\x87\x1d@'
tRp183
sg10
(lp184
F11.089774209973518
aI2
aI2
aF1.5139381994790966
aF5.7906841318385363
aF5.2297839434074422
aF2.7979539052180735
aF1.7494992308456654
aF1.6576300415775904
aF0.094840832698127764
aF4.0072946544991126
aF8.1800713933927138
asg12
I250
sa(dp185
g3
(lp186
F10.061940949292444
aF1.9806148423495151
aI1
aF5.5774896819933266
aF8.4682519551798041
aF3.1861165803950202
aF5.6666650000000001
aF8.5388569269769921
aF5.0926945235888006
aF2.2181936537644873
aF4.7584777297104024
aF6.0192454726152782
asg5
g6
(g8
S'\xb7\x1c\xc6\x98j>\x06@'
tRp187
sg10
(lp188
F9.141683903588163
aI0
aI0
aF3.4132038938687055
aF7.2974943088191742
aF6.1472005107087533
aF0.99607392542204276
aF7.5273195208047543
aF6.1399327939665733
aF3.5644801343779289
aF6.4620177270440688
aF6.4739447587454579
asg12
I250
sa(dp189
g3
(lp190
F10.43350912780104
aF0.45097393316312551
aI0
aI0
aF1.6188012039080508
aF4.3115338305437376
aF5.50115635230609
aF9
aF5.0212471998618984
aF0.28780780810816742
aF5.998628012333616
aF3.3062654450557249
asg5
g6
(g8
S'\xaf\x9e\x1a\xa3}\x8d\r@'
tRp191
sg10
(lp192
F9.8941276432095595
aI0
aI0
aF0.96288991432823023
aF3.6201925509638468
aF1.3596604261930574
aF1.9399523086531301
aF8.7952715996728923
aF5.4228716437303142
aF3.1986784155212087
aF8.2094070728430761
aF1.4571401670458908
asg12
I250
sa(dp193
g3
(lp194
F11.49918139306269
aF2.5224091303029219
aI2
aF3.6059503806240394
aF1.674995925252734
aF6.3919700121199234
aF5.6666650000000001
aF1.6003779838946035
aF7.4313815058680079
aF0.60936837435891034
aF9
aF4.5951373064796428
asg5
g6
(g8
S'^js\xcb\x14\x89\x18@'
tRp195
sg10
(lp196
F10.832254860636771
aI1
aI1
aF1.2548528442667062
aF1.1870959538449011
aF7.0711004251425607
aF5.3909699583099062
aF8.8400818876760461
aF0.75651074321127354
aF5.5195440378531311
aF4.1268125580808999
aF5.3059604525843929
asg12
I250
sa(dp197
g3
(lp198
F9.1099787270029537
aF4.7879956955557335
aI2
aF4.7540339020931137
aF4.5020281125342718
aF8.9187462510649578
aF1.342624277353611
aF6.7059286302651735
aF3.5865763891354798
aF5.4470286890038775
aF2.9870781690874928
aF4.5610699812742901
asg5
g6
(g8
S'\x81\x08m\xd3\t\xe8\x12@'
tRp199
sg10
(lp200
F9.8800729892246473
aI2
aI2
aF2.6410494405777154
aF4.1522427867636758
aF4.9087318289056769
aF3.4492307240485136
aF7.8590389763338946
aF6.4456750883449363
aF3.4113636659484148
aF2.9252895454828796
aF8.8263949955017384
asg12
I250
sa(dp201
g3
(lp202
F8.5483578473496493
aF3.3055929137122373
aI1
aF5.6666650000000001
aF0.36381966677579036
aF0.50718395068139333
aF4.9499924162152693
aF0.15214352653277396
aF5.3247605371145408
aF4.1219387091073898
aF4.1377640720777791
aF4.4963749745861286
asg5
g6
(g8
S'-1v\x1b\xe8\xe5\t@'
tRp203
sg10
(lp204
F9.619048705317411
aI1
aI1
aF5.1694110118202996
aF3.0944199124619285
aF0.3926630966044613
aF4.7732827846791688
aF2.9426795547257099
aF3.6933412274609831
aF5.5662508855870385
aF0.57135321336212042
aF0.6676994028357327
asg12
I250
sa(dp205
g3
(lp206
F9.9671915674117439
aI1
aI2
aF4.6940258048569055
aF5.191526900149821
aF2.1553675963314114
aF0.2932755923922889
aF0.95274226359942249
aF3.968744578050166
aF5.1211385006283301
aF6.7593977133143746
aF0.6705541519960464
asg5
g6
(g8
S'\xdd\x85\xc8\xf1V\x94\x13@'
tRp207
sg10
(lp208
F10.160878201880895
aI0
aI0
aF2.5199448909686391
aF4.4608352534309912
aF4.1216533098742065
aF4.7087000848902454
aF3.211782782729212
aF8.493642923541783
aF3.4232124943838804
aF8.5583416945002959
aF1.5256351117091658
asg12
I250
sa(dp209
g3
(lp210
F10.115558623908035
aF1.2092707626114487
aI2
aF4.4011500631160736
aF4.7549418999447983
aF4.3702811440326776
aI0
aF5.2097890221240073
aF4.1593374527651381
aF3.7483537494424604
aF6.2952565155433255
aF5.9711204365200885
asg5
g6
(g8
S'P\xe3\x00\x0e{@\x14@'
tRp211
sg10
(lp212
F9.5303409389722482
aI1
aI1
aF1.2887887523861954
aF4.1485437637072442
aF7.4638723051993248
aF1.9625502895709512
aF6.1294877965372825
aF1.2364519110336509
aF0.65362631641318569
aF6.3578307909721365
aF8.2821287272263344
asg12
I250
sa(dp213
g3
(lp214
F12.33333
aI2
aI1
aF5.6666650000000001
aF1.721522152445037
aF8.0002816231105918
aF0.96099193807283512
aF1.6071185963990704
aF6.0003606355377404
aF1.1517937527057862
aF6.8721742522950402
aF2.9208694878904575
asg5
g6
(g8
S'y!W\x0c#\xe3\x11@'
tRp215
sg10
(lp216
F10.461287066053107
aI0
aI0
aF4.9142108363673618
aF2.7748800114563021
aF7.7340009030097292
aF1.3311029750004133
aF7.8661242233312141
aF2.7787203610123363
aF1.9283380855149808
aF1.5334576069355186
aF5.7694605730257784
asg12
I250
sa(dp217
g3
(lp218
F12.33333
aF3.1743896420011448
aI1
aF0.74259408857365772
aI0
aF9
aF2.7112996550275987
aF0.49660977830385528
aF2.3787053056568865
aF4.1879200487024582
aF4.5620595819775227
aF7.8076591771039459
asg5
g6
(g8
S'b\xa7\xef\xdf\xf92\xeb?'
tRp219
sg10
(lp220
F10.515476960596644
aI2
aI2
aF3.3334637337621227
aF3.6931926660938359
aF3.1553287081273851
aF1.7494677345757761
aF0.19698648193875223
aF5.2256961543043472
aF2.4506283151889146
aF0.99123848224883726
aF3.0188977996711923
asg12
I250
sa(dp221
g3
(lp222
F9.2941074039754117
aF1.7538840731912342
aI2
aF4.6400082938242422
aI0
aF8.0560098234074005
aF5.6666650000000001
aF4.4515223490136808
aF1.1574444860860473
aF4.2272353270592529
aF3.3596690813807344
aF9
asg5
g6
(g8
S'\xe8y%\xff\x9b\x9b\x0e@'
tRp223
sg10
(lp224
F9.0005523963774436
aI0
aI0
aF5.4567224034267454
aF3.8725461889075588
aF5.4134347576495223
aF4.6154491938193267
aF2.7425912012235512
aF7.2372677618236594
aF0.67399614003883535
aF6.3170693426385593
aF7.8344033225214149
asg12
I250
sa(dp225
g3
(lp226
F11.175698210907051
aF3.1358056058551109
aI1
aF3.8992053168539096
aF8.2345803000197559
aF9
aF1.60035488181751
aF7.4342539140751311
aF1.3378202006434521
aI0
aF3.6363162285086474
aF0.020768619441004166
asg5
g6
(g8
S'\x0e\xea\xe6\xd2Tc\x15@'
tRp227
sg10
(lp228
F8.3418619057574777
aI2
aI2
aF0.13231970517699423
aF3.6125602003614441
aF1.2017877525149503
aF1.0160175850289659
aF4.8903493610705784
aF0.49967226732207615
aF1.0354956672128099
aF2.4578279561885914
aF3.2104020190565645
asg12
I250
sa(dp229
g3
(lp230
F10.188097474597884
aF0.67919901220160028
aI1
aI0
aF3.6896369351320675
aF7.4653704551549813
aF1.9914250919081558
aF3.4960638502157071
aF2.0901014759314691
aF2.8308541584035942
aF1.2471411343109731
aF9
asg5
g6
(g8
S'N\x02\xb2\x97h\xfa\x11@'
tRp231
sg10
(lp232
F10.701580230845593
aI0
aI0
aF0.52963462223117719
aF2.7319608856456248
aF6.2710345803573979
aF5.4566243215331331
aF7.4109678780089618
aF1.2264925953228469
aF3.6522780877192251
aF3.6806667608889256
aF7.6241216973161183
asg12
I250
sa(dp233
g3
(lp234
F10.385245158503754
aF2.6844819861969
aI2
aF0.29626786917763182
aF5.7519293048578763
aF9
aF1.8375781066927317
aF5.2171343720427856
aF2.0092303109681415
aF5.6666650000000001
aF3.826659374676975
aF8.9558295321756773
asg5
g6
(g8
S'\x91\xb3\n\x0e+\xd6\x10@'
tRp235
sg10
(lp236
F9.2481308700523712
aI2
aI2
aF0.35149298321864419
aF2.9022320875169725
aF6.5519951994265773
aF4.3541116596884581
aF4.5422259797002003
aF8.7710544539485884
aF1.5605513519550975
aF3.4177165956789839
aF8.125450952078106
asg12
I250
sa(dp237
g3
(lp238
F10.632677165636139
aI0
aI0
aF1.5606845737734198
aF2.3465621842423414
aF7.4664255607758072
aI0
aF9
aF5.2749031563478557
aF5.6666650000000001
aF4.157145797200303
aF7.7287356534205065
asg5
g6
(g8
S'\xd9<6\x9c\x8a\xd5\x11@'
tRp239
sg10
(lp240
F10.463670911169325
aI1
aI1
aF3.9313753411642542
aF8.2185986238290489
aF7.9286920125100817
aF4.2113428037439062
aF1.0794181729177388
aF4.1127849517127864
aF3.078926639309
aF6.5468895052890161
aF3.9574476473246283
asg12
I250
sa(dp241
g3
(lp242
F12.33333
aF6.1194596335798188
aI0
aF5.6666650000000001
aF7.2573336763525589
aF6.231386815858408
aF4.1180504656422503
aF3.1024837826566869
aF9
aF4.2386057272376556
aF4.8761713505288622
aF1.9612417317426587
asg5
g6
(g8
S'\x9e\x0e\xa8\xa3\xed[\x14@'
tRp243
sg10
(lp244
F10.833873367707909
aI1
aI1
aF4.8581497843969732
aF2.3466873980388385
aF3.4337821650408582
aF1.8619506648472168
aF7.0041657480729311
aF2.8600590001288939
aF3.8894414710546235
aF7.1488593668326148
aF7.3672704828742468
asg12
I250
sa(dp245
g3
(lp246
F11.031852736796253
aF0.8725588021368984
aI1
aF3.9150796889312431
aF0.65586532817241561
aF0.81549407128609397
aF1.3800294089035561
aF6.7450652348374032
aF9
aF4.8509851738035961
aF9
aF4.2003471414956906
asg5
g6
(g8
S'\xcfle\x9ed\xf2\x1d@'
tRp247
sg10
(lp248
F10.409683475180504
aI0
aI0
aF5.0302105396335115
aF7.3118970145792961
aF2.4880313772497837
aF2.9444355998628007
aF3.5002874835347941
aF5.710457796148642
aF3.7301189586861137
aF2.8321732123767607
aF0.0718510519741139
asg12
I250
sa(dp249
g3
(lp250
F11.125754758260214
aF0.16117474981617874
aI0
aF5.6666650000000001
aI0
aF2.5890523567259343
aF2.9550007828695097
aF4.2958284305756749
aF9
aF3.127050220931415
aF4.936001670852205
aF4.8411228276251901
asg5
g6
(g8
S'/\xaf\xac}\x1a9\xe8?'
tRp251
sg10
(lp252
F11.036059211287249
aI0
aI0
aF5.0863611635664556
aF0.033851999829978552
aF2.1041750022908965
aF3.1758222847217197
aF5.2296063997610878
aF5.4801028449289495
aF4.2283887328776562
aF1.57287294438777
aF6.3951450648826196
asg12
I250
sa(dp253
g3
(lp254
F9.9737939884635836
aI2
aI2
aF3.3639076176913116
aF4.9373200107304047
aF5.3808629393443352
aF1.336380871093614
aF5.7583296293610928
aF0.85293878676654555
aI0
aF6.0669619891968178
aF3.3732080659437367
asg5
g6
(g8
S'\tP\x8ap+\x9d\x13@'
tRp255
sg10
(lp256
F10.084168328222882
aI2
aI2
aF0.2871866038308663
aF5.0285071852367169
aF1.8613117764428213
aF1.5937835202719419
aF4.4355017429980919
aF5.7836243693659171
aF4.6527676750195104
aF6.1656157215613741
aF4.9179396174019052
asg12
I250
sa(dp257
g3
(lp258
F12.116757994094591
aI1
aI1
aF5.3568738816623469
aF4.8604376214198961
aF5.8169117337493894
aF4.0820352733020284
aF0.99731103506738361
aF2.5268511495051644
aF5.6548233309102756
aF6.435537688968342
aF2.5764396488785453
asg5
g6
(g8
S'$\x1537\xe7\x0e\x01@'
tRp259
sg10
(lp260
F10.304658476916345
aI0
aI0
aF4.6292373163962495
aF1.5329264110459655
aF4.5168991561580878
aF3.1188438146871555
aF2.322593377339452
aF2.8982747646385101
aF2.322906267255068
aF0.20035684395532705
aF2.8810048165477449
asg12
I250
sa(dp261
g3
(lp262
F9.2977080422027178
aF0.65421702078856647
aI1
aF4.5457496228978806
aF6.1220817507320309
aF7.6626826748792842
aF1.5592159149827218
aF3.2118909451808828
aF0.58760864107328437
aF1.7400968354014641
aF5.0975499266693554
aF8.0690798282474656
asg5
g6
(g8
S'#\x85\xbc\x1e\xec\x1e\x02@'
tRp263
sg10
(lp264
F10.299603059755935
aI2
aI2
aF0.56128854843957909
aF7.3046084714743431
aF3.5378800084264244
aF4.9089750943467516
aF2.6268141703933301
aF0.70768003256726775
aF1.5640181073465884
aF1.8704720220119075
aF2.4127784383288997
asg12
I250
sa(dp265
g3
(lp266
F12.33333
aF4.2994449301060929
aI1
aF5.340597874180685
aF0.054216881380994675
aF8.2410093095520072
aF1.9746686871932608
aF9
aF4.8535505846897653
aF2.562284645121665
aF6.0430805781125034
aF9
asg5
g6
(g8
S'\xc6\xd0\xd3\xd1\x07j\x01@'
tRp267
sg10
(lp268
F9.5557201049046547
aI2
aI2
aF1.7483916269107114
aF7.9656816773159722
aF8.9842684947669014
aF1.0182549231081288
aF7.944038364794741
aF6.2210637091817338
aF3.4966995754590928
aF8.3596064874491987
aF6.2718797532758099
asg12
I250
sa(dp269
g3
(lp270
F10.993350668885789
aF8.8399686457796118
aI1
aI0
aI0
aF2.155373314281491
aF2.4086767052259317
aI0
aF5.063183561190554
aF1.2815552657101641
aF1.5311403783873432
aF8.8746322679129435
asg5
g6
(g8
S'\xb2&y\x86\xb8\xf5\x08@'
tRp271
sg10
(lp272
F9.4363953218198997
aI2
aI2
aF0.00092732613830273398
aF1.2294213148337905
aF0.98476610829273614
aF0.83200613648107102
aF5.3702536060883901
aF5.0131240006126427
aF1.8549100848893434
aF2.4709630301691332
aF3.2405577624072643
asg12
I250
sa(dp273
g3
(lp274
F10.44626522484644
aF3.3930147088589817
aI0
aF2.9174782874830898
aF1.6882212879938936
aF6.4735468685817814
aF5.6666650000000001
aF8.2534779717046582
aF4.2377949333347216
aF0.080030608228340183
aF7.4596337785235205
aF6.5288185066349227
asg5
g6
(g8
S'\t\xcd\xbf\xec\xef\xf3\x0c@'
tRp275
sg10
(lp276
F10.487576912411466
aI2
aI2
aF4.9392243120840549
aF0.93473884348278957
aF8.9335265038188361
aF2.3391000862200002
aF4.6966342267273342
aF4.3069868105063591
aF5.6261605351270259
aF2.0120258101601696
aF8.8518126325771274
asg12
I250
sa(dp277
g3
(lp278
F10.597975769877234
aF1.7900271529115501
aI1
aF3.6776924706187795
aF4.990081573019209
aF0.29767905814387269
aI0
aF9
aF8.2347738277996232
aF3.157490170220266
aF3.0716667248869665
aF8.7476438951557665
asg5
g6
(g8
S'^P\xb1\x02\t\xfb\x02@'
tRp279
sg10
(lp280
F10.355772272357358
aI0
aI0
aF0.61452004824885531
aF7.2029346980705906
aF6.8127902686457373
aF4.4161035288208685
aF7.0657813333141615
aF1.4933777794045668
aF2.2070559434619379
aF3.2498211675904107
aF4.7413957195989225
asg12
I250
sa(dp281
g3
(lp282
F9.9622712433675105
aF5.1607615410650292
aI2
aF1.4940536479500999
aF5.5723888426574462
aF8.9628955134732564
aF1.4353735330483544
aF4.7093118040209987
aF9
aI0
aI0
aF9
asg5
g6
(g8
S'\xb6\x8c\x9b\xa7sG\x16@'
tRp283
sg10
(lp284
F9.7377514241572189
aI2
aI2
aF5.5156589725351335
aF5.038269908004068
aF6.5649166968010544
aF4.2406444696024028
aF7.3804603684100396
aF5.3982513850225899
aF5.5567425303624649
aF0.27032602361275992
aF8.7317584726507409
asg12
I250
sa(dp285
g3
(lp286
F12.018437959471802
aF4.3123291124913568
aI1
aF2.6291665604669903
aF2.3653918633758484
aF8.0050460375046537
aI0
aF6.7815769641216699
aF4.5193513435644226
aF2.8835097129216365
aF4.4956828474789239
aF1.6733037125236798
asg5
g6
(g8
S'\x85\xbd\xf3\xc7P\xc6\x01@'
tRp287
sg10
(lp288
F9.6431620602506278
aI1
aI1
aF2.208319716704878
aF2.3503459489517939
aF7.1438892842201884
aF0.0047934468341749763
aF5.3842126577667537
aF2.7919558190382494
aF3.0464083982176335
aF0.25656220932042972
aF8.1809997535769217
asg12
I250
sa(dp289
g3
(lp290
F7.1057740324684389
aF1.7950609058813631
aI1
aF5.6348872543334965
aF1.501572318923831
aF1.0412703560603118
aF3.0388488066004404
aF6.3085495900101893
aF1.1018741574468478
aF5.6666650000000001
aF6.0098153630103468
aF6.6581996987177998
asg5
g6
(g8
S'Q\n\x0e\xb6\xb1\xe6\xfa?'
tRp291
sg10
(lp292
F9.5854166924629354
aI2
aI2
aF5.6027002019243266
aF2.7170216865365773
aF1.741386987257354
aF2.0842529944303041
aF1.2165716634752759
aF4.2455801327599101
aF4.2170204178904518
aF5.7688186636317527
aF0.03068544781597049
asg12
I250
sa(dp293
g3
(lp294
F8.0162123092469173
aF1.2872139899670509
aI1
aF4.8090440042517439
aF6.9810020338340575
aF9
aF1.8615981597828934
aF2.6689492375626092
aF0.59483250831846279
aI0
aF2.8828053838004175
aF5.1798098093461693
asg5
g6
(g8
S'\xa8\xaaL\xeaJT\x07@'
tRp295
sg10
(lp296
F9.5055846324171984
aI2
aI2
aF0.3659743479368377
aF0.82466890766572787
aF3.3947568254704761
aF4.3055436573747468
aF1.8964933510246751
aF1.5434470765872677
aF0.82532655247633957
aF4.9664177774148115
aF2.0617203519425464
asg12
I250
sa(dp297
g3
(lp298
F9.2581778657974212
aF0.87058207146231936
aI1
aF2.2619142015497662
aF9
aF6.1705342068570488
aF2.830283301311177
aF4.6422372351255232
aF0.06481631086478723
aF5.2522868698739309
aF6.559717752835188
aF5.6847651626901738
asg5
g6
(g8
S'/}n+\xf1\xc6\x16@'
tRp299
sg10
(lp300
F9.3798549775766258
aI0
aI0
aF0.30791860978392999
aF4.8911586912548524
aF5.1638879861231866
aF0.37742545498153257
aF1.5244878730766078
aF6.3456060946606971
aF3.0133536574555881
aF8.3609224625457923
aF2.0867045575553305
asg12
I250
sa(dp301
g3
(lp302
F10.335010653911379
aF7.7349532391641782
aI1
aF4.2947597380479037
aF7.9334050497682078
aF2.0209306941372374
aF3.1604108048155779
aI0
aF4.1605073900948542
aI0
aF2.0639483018132156
aF8.6562160195979203
asg5
g6
(g8
S'-\xa5\r\xa8"\x84\x19@'
tRp303
sg10
(lp304
F10.483490817794777
aI1
aI1
aF4.1627441843182726
aF8.4197484883637213
aF1.12762304684545
aF3.359645693996772
aF4.1778579583724298
aF8.9769313679943981
aF3.5183587949079813
aF0.48533841918915588
aF0.20310887290940483
asg12
I250
sa(dp305
g3
(lp306
F11.87212598746644
aF2.3997955784468381
aI2
aF3.5855791505103918
aF9
aF6.4786239920510056
aF0.73785051308526728
aF2.8608157791807045
aF4.2351759006370875
aI0
aF2.7624326856149599
aF5.7165618836999483
asg5
g6
(g8
S'Y\xfe\x01\x8dq\xdd\xfb?'
tRp307
sg10
(lp308
F11.445006589940512
aI2
aI2
aF5.3379516440313761
aF8.908123781640251
aF6.2203459427818579
aF0.065230498286175401
aF4.7804323869610794
aF7.1588723551659434
aF0.10193692012622309
aF2.3786268334279028
aF7.4122460816133344
asg12
I250
sa(dp309
g3
(lp310
F10.411573883434698
aI1
aI1
aF0.038927596111218862
aF7.2894259031335409
aF2.6687322369634439
aF3.7585583324216301
aF2.8276289818967903
aF7.4489544973143662
aF2.505971522439427
aF5.0391082732371402
aF8.3796909740800842
asg5
g6
(g8
S'\xfc\x96\x0c\xafYa\x02@'
tRp311
sg10
(lp312
F11.059912198204991
aI2
aI2
aF0.20218395177234147
aF1.5581501746437494
aF2.1022726614183811
aF0.68047260670531418
aF7.6311532332229239
aF0.96237576721493134
aF2.3122179365125848
aF2.8572861817828152
aF5.6640500318536935
asg12
I250
sa(dp313
g3
(lp314
F9.6595872998808421
aF1.2792186330551183
aI2
aF4.2437131772179786
aF4.2358553712314109
aF7.1452710349969202
aI0
aF6.6613859480166067
aF2.8963960759300758
aF0.98149628949379975
aF9
aF5.5568671242764767
asg5
g6
(g8
S'{Z\xeaE{q\x0f@'
tRp315
sg10
(lp316
F9.225077704023505
aI0
aI0
aF0.92885508107797177
aF8.8168642562838802
aF1.6310780197921653
aF4.7871239330119639
aF3.5514956839375338
aF1.6090682292549352
aF3.5229442639650594
aF1.5682707849811015
aF4.1782266641715671
asg12
I250
sa(dp317
g3
(lp318
F12.33333
aF1.8342725703771925
aI1
aI0
aF9
aF3.0337112979986394
aI0
aF8.8365624078921563
aF3.5468034853498542
aI0
aF0.50204365386723726
aF2.6430585636657229
asg5
g6
(g8
S'#\xf0]\x10\x99#\x04@'
tRp319
sg10
(lp320
F10.973262000675417
aI0
aI0
aF0.88775020369803248
aF8.1588043809991397
aF1.2907550129957452
aF3.4551412711840221
aF3.3181916423206022
aF3.2210585756717864
aF3.9306148891343637
aF0.75355732277165766
aF0.39408172232425498
asg12
I250
sa(dp321
g3
(lp322
F9.6268638533059772
aF2.9493145619413381
aI2
aF5.6666650000000001
aF3.8370682606360393
aF1.9236428543910988
aI0
aF3.1131094829861716
aF1.133991572222528
aF0.9103234019378843
aF8.6706042839491726
aF1.8839540525227774
asg5
g6
(g8
S'\xf6\x97h\x0e\xff\xb1\x03@'
tRp323
sg10
(lp324
F11.766918164187864
aI1
aI1
aF1.4342515865943308
aF0.80903708976576283
aF0.089369589711510766
aF2.0131325305235737
aF7.5258531609719439
aF0.003962328972938467
aF1.1396226440719583
aF5.5057625315778527
aF0.14225583285312515
asg12
I250
sa(dp325
g3
(lp326
F12.221915223017723
aF5.4691637882037201
aI1
aF1.2529828240719552
aF0.8311922427132955
aF6.8908778776996442
aF5.6666650000000001
aF4.7635782367806145
aF1.2520411001689371
aF0.25562282751231102
aF7.435346324259557
aF0.12937170198920384
asg5
g6
(g8
S'$_~\x12\x89\xfa\x1c@'
tRp327
sg10
(lp328
F9.3676003762842956
aI2
aI2
aF0.058406745793859363
aF5.1512459183652002
aF2.4628665319551755
aF0.73563002104831399
aF7.9315118894730992
aF0.58551082875968474
aF3.271927649584216
aF3.5025938458400079
aF7.9721825288064165
asg12
I250
sa(dp329
g3
(lp330
F9.4707278117529246
aF0.33030118500049399
aI2
aF2.3168247039235959
aF5.4747794230834872
aF1.9036603050687415
aF5.2155864939909167
aF3.17867746086708
aF3.8352718977212388
aF4.7574841792330043
aF1.5851281759988138
aF7.2684769122493025
asg5
g6
(g8
S'\x9d\xe02\x06E>\x1d@'
tRp331
sg10
(lp332
F9.21476853338201
aI0
aI0
aF4.9089213169096402
aF0.033412217366819208
aF0.12584505230530418
aF2.4923235832034467
aF4.9568643923277484
aF5.0954054897114247
aF3.7402157037585688
aF0.26623509690069402
aF0.020363735392896487
asg12
I250
sa(dp333
g3
(lp334
F8.3800126156333086
aF4.6949536436754125
aI2
aF1.4128330464947414
aF0.94520203727530427
aF6.0195277590704279
aF3.1681042444159679
aF1.3006606141749035
aF8.7336428684152896
aF4.2215600074995434
aF7.7198479546033907
aF2.8067348578420646
asg5
g6
(g8
S'\xcfQ\xd2\xef%\xca\xe6?'
tRp335
sg10
(lp336
F8.6353490806724906
aI1
aI1
aF3.566153063034053
aF8.7844565077119388
aF4.9130866328660616
aF4.1043012923316038
aF7.0543711013164909
aF2.5818214889948869
aF4.8753469422746889
aF2.6976699187835496
aF5.586399133625183
asg12
I250
sa(dp337
g3
(lp338
F6.9645828219315646
aI0
aI2
aI0
aF9
aF0.72841310314221897
aI0
aF5.9542232997107485
aF3.1772885761655325
aI0
aF5.540559415275168
aF9
asg5
g6
(g8
S'*\n|0\x91t\x10@'
tRp339
sg10
(lp340
F8.7544202962285684
aI1
aI1
aF0.76510501265344932
aF0.026323639637556906
aF2.3070254973835373
aF2.8131103550026877
aF8.4473686450254828
aF8.2513281814730437
aF0.22129413010159649
aF8.2772079242745118
aF0.02675366862765205
asg12
I250
sa(dp341
g3
(lp342
F11.844506762508439
aF6.2231730847010951
aI2
aF4.5478515358647877
aF9
aF9
aF1.7243917985673556
aF1.8196679641047031
aF8.1470395494718311
aF2.9035929692165521
aF5.5219011625918766
aF7.7527375933813092
asg5
g6
(g8
S'\x15:\x8b\xfe\xd4\xb1\xe5?'
tRp343
sg10
(lp344
F10.363557247105453
aI1
aI1
aF2.0828124666527676
aF0.0008059656898573575
aF8.498192927280666
aF3.4788058949143945
aF5.4537689816250108
aF7.4004377808938431
aF2.2580704779948868
aF1.0609033837392716
aF3.714296312486896
asg12
I250
sa(dp345
g3
(lp346
F10.5511432327969
aF7.2147326659856441
aI0
aI0
aF2.7757246771665081
aF5.7129561748149378
aF5.6666650000000001
aF8.7261769569875653
aF2.6269007222458023
aF4.3923421332292545
aF2.8819595108811078
aF2.1801373711076208
asg5
g6
(g8
S'\xd5\xd7\xb8\xf8{h\x1c@'
tRp347
sg10
(lp348
F10.239972691200201
aI1
aI1
aF2.009140979163238
aF4.615188557154621
aF6.2172504216700029
aF5.3278881977974644
aF7.0941630649160334
aF3.868070198704979
aF1.0850746366670594
aF3.6330105491083633
aF2.4546061834477233
asg12
I250
sa(dp349
g3
(lp350
F10.666385507235324
aF1.7066129301760877
aI2
aF5.6666650000000001
aI0
aF7.6356525759476392
aF5.6666650000000001
aF9
aF5.3587803236286664
aF1.7726723397723301
aF9
aF4.0718471528912712
asg5
g6
(g8
S"'\x94\x87\x9cs3\x0f@"
tRp351
sg10
(lp352
F9.3858397017499868
aI0
aI0
aF5.5495388348276506
aF8.030572375322846
aF3.9915486862027243
aF1.9358792785604833
aF6.7425189483071035
aF1.9943982304864465
aF0.27430777896110675
aF3.9452968130815291
aF2.8747973371700839
asg12
I250
sa(dp353
g3
(lp354
F8.4700198531522997
aI0
aI1
aF2.9739041398185631
aF4.037546854989607
aF2.698115441123397
aF5.6666650000000001
aF3.0643588691714707
aF2.3894162724168315
aF0.62435155040781476
aF7.4608614241402664
aF9
asg5
g6
(g8
S'"uF\x94H}\x06@'
tRp355
sg10
(lp356
F9.808909993086397
aI1
aI1
aF4.3344052001761719
aF7.0803702349221416
aF8.1646422358048589
aF5.2878181658295045
aF1.7895927087680783
aF4.8661365364228546
aF3.0877705929206614
aF5.8585476440934592
aF2.6654879104298943
asg12
I250
sa(dp357
g3
(lp358
F6.0994530406500642
aF5.0702783685267887
aI0
aF4.9578612924385421
aF6.6775815474632951
aF1.7087642883469654
aF0.50000794028526296
aF2.3497475701397987
aF3.8599851186063914
aF4.8049593759262965
aF3.8744018290796767
aF2.5857504037525052
asg5
g6
(g8
S'\xd9o\x94\xc0\x1a\xd5\x1c@'
tRp359
sg10
(lp360
F9.114168459149834
aI2
aI2
aF3.1774083699226798
aF7.8169495709610217
aF6.4937883319496486
aF0.50201354558768152
aF3.3256117255332764
aF1.5435890353426536
aF3.6593093123177938
aF7.6078631963745522
aF8.7376466052112445
asg12
I250
sa(dp361
g3
(lp362
F9.1893958809307072
aF0.64452223970105149
aI1
aF3.8211815969808596
aI0
aF6.4694799295551544
aF5.0608712490355332
aF5.787240746086912
aF2.3415465179797352
aF0.21207406602488499
aF5.9230334122309634
aF8.6373626492474784
asg5
g6
(g8
S'\xce\x1d\xc6\x8b\x06\xf3\xfd?'
tRp363
sg10
(lp364
F10.925313103782322
aI1
aI1
aF4.898150014878512
aF0.33435018436184094
aF4.749248076174446
aF4.3138921504473435
aF6.1619493776895968
aF0.66662196562101761
aF3.3706664236677248
aF8.1887272226861096
aF8.4079030106125181
asg12
I250
sa(dp365
g3
(lp366
F12.33333
aF3.9658388627081997
aI1
aF1.8999111921174339
aF2.9422900598712332
aF3.6822269250292061
aF5.6666650000000001
aF0.35200245825317034
aF2.6420261937869065
aF5.6666650000000001
aI0
aF3.2572319663416112
asg5
g6
(g8
S'C\x06k\xcb\x90F\x1f@'
tRp367
sg10
(lp368
F11.360170603946361
aI0
aI0
aF1.866656381489693
aF3.5471200900037667
aF8.6824349832556855
aF5.6043088023992516
aF7.2186381117736271
aF8.2379333775353771
aF0.17561956204147749
aF3.1414222504069502
aF6.3878573404249188
asg12
I250
sa(dp369
g3
(lp370
F10.63887371824385
aF2.5696560516299258
aI0
aF1.4695433931902739
aF5.1640208963004408
aF6.9886467020370322
aF5.5122120047240557
aF9
aF7.4950559627125681
aF1.0116919620468776
aF3.7834450212273496
aF2.5993640994965395
asg5
g6
(g8
S'\xf3\x1b\xc3\x90o\xc7\x14@'
tRp371
sg10
(lp372
F9.0186869418885465
aI1
aI1
aF1.9682613266017563
aF0.89844492310670887
aF1.8223212135898095
aF2.9135858028447306
aF6.1872967651630937
aF2.1046733884791013
aF1.860561218600207
aF2.54539842976232
aF7.4359373520290921
asg12
I250
sa(dp373
g3
(lp374
F11.774959160463139
aF2.9031219658050156
aI2
aF5.1414017380478292
aF5.933691614886623
aF3.0510497179699749
aI0
aF1.4062763079912672
aF1.2378678564941787
aI0
aF7.014553572629584
aF6.3337491787348892
asg5
g6
(g8
S'\x17\xac\xc8\x11\xcb\xb4\t@'
tRp375
sg10
(lp376
F9.5393728723235807
aI1
aI1
aF4.0861956804980659
aF2.9651512325484881
aF6.5429194790839809
aF2.8719883615416935
aF5.7103163056398625
aF5.7207212985808438
aF0.52913730048149366
aF0.39024773171412552
aF1.8321733149147452
asg12
I250
sa(dp377
g3
(lp378
F8.9285829519651063
aF6.5388152274068059
aI1
aF0.15060084650588595
aF4.188201235677135
aF7.0342151689949564
aF5.6666650000000001
aF3.5588540451043227
aF1.9858128517869251
aI0
aF2.5723690031719721
aF0.4964376479616302
asg5
g6
(g8
S'>\x08&^\xbf\x1f\x17@'
tRp379
sg10
(lp380
F10.744987407123425
aI1
aI1
aF0.68758895254940777
aF3.3232263096049373
aF0.30354673011996647
aF2.1924045980545612
aF6.609260438944041
aF5.4563367824156002
aF5.1619540616889994
aF1.0140591145985516
aF0.81735239770325685
asg12
I250
sa(dp381
g3
(lp382
F12.33333
aF4.9825215090176513
aI0
aF5.4466014267743441
aF7.320927357445556
aF2.0300599644021271
aF5.6666650000000001
aF0.15784126261578946
aF9
aI0
aF5.4801257052338279
aF3.504762208098712
asg5
g6
(g8
S'\xb4\xa5\x86\xd4E\x9f\x19@'
tRp383
sg10
(lp384
F9.7255543588040094
aI2
aI2
aF1.7201959418223882
aF6.3594752518845308
aF6.9723016129967839
aF4.1957777270782763
aF8.422259514876874
aF5.4868261327156427
aF0.33206788220106132
aF5.6046802156967441
aF5.4836063642929256
asg12
I250
sa(dp385
g3
(lp386
F9.6463893616393186
aF0.36674854515561228
aI1
aF3.9094613342404196
aF4.619455303936121
aF0.65822046115237753
aF2.7810120395108822
aF8.7403410950782483
aF8.607684705419242
aF1.7055703802919977
aF1.4765591209147957
aF2.1135410012661051
asg5
g6
(g8
S'\xf4\xfb+\xd8\x85\xc4\xff?'
tRp387
sg10
(lp388
F10.167912123102962
aI0
aI0
aF4.6406694703814457
aF8.2354401328676037
aF8.1292738594319509
aF3.0845033716184576
aF0.73130521623407641
aF1.9182010440160693
aF0.20897275484518554
aF5.8070081731412611
aF4.3435474804594296
asg12
I250
sa(dp389
g3
(lp390
F12.33333
aF1.7786278098432817
aI1
aF2.5258611345598529
aF6.0339431031885535
aF6.8925325206855064
aF5.6666650000000001
aF2.2295999437547769
aF2.100854270136689
aF3.7467162804606775
aF6.7758472305715447
aF7.2830569306669339
asg5
g6
(g8
S'i\xa8~\x8eh_\x15@'
tRp391
sg10
(lp392
F10.328499134419253
aI0
aI0
aF0.81813937555104654
aF2.5157853326241719
aF4.3278224571499297
aF3.1732025671341799
aF8.5410361382443281
aF8.0525586966871092
aF5.4854517714860007
aF2.3911326939396709
aF4.3414500597112191
asg12
I250
sa(dp393
g3
(lp394
F8.5853162272811634
aI0
aI1
aF5.6666650000000001
aF1.7840115950409059
aF4.7255633391097849
aI0
aF5.07044382163288
aF6.4860930796661593
aI0
aF1.7761000562054619
aF7.2714390381698539
asg5
g6
(g8
S'"\xd6\xc6\x9b\x1c\xe8\x1b@'
tRp395
sg10
(lp396
F8.9430152463691854
aI0
aI0
aF5.2631063404113068
aF4.4833055065129184
aF1.94418518539542
aF1.8342681708050115
aF5.7559102668029443
aF6.9589296434896628
aF2.3638955917449809
aF4.2013563928375204
aF8.8308176960112252
asg12
I250
sa(dp397
g3
(lp398
F8.7934793802834488
aF3.8470484776843463
aI0
aF4.3082196275486737
aF4.8071871110078686
aF4.0182534373422971
aF0.33053385541193325
aF6.9693147665499415
aF5.1845010692373918
aF3.4216671991543057
aI0
aF6.4196400523658479
asg5
g6
(g8
S'\xecls\xa2\xcd\xd0\x12@'
tRp399
sg10
(lp400
F9.5470100138091016
aI2
aI2
aF4.3336362086704732
aF7.7485299756009578
aF3.472730414377545
aF2.3095589348532255
aF3.7041309309594763
aF2.8237320022002814
aF0.52999406000049543
aF2.460456210909217
aF5.5494717768331938
asg12
I250
sa(dp401
g3
(lp402
F10.332472106560163
aI0
aI1
aF4.1249725660202694
aF1.1198909214201609
aF2.3773956081350716
aF2.0051740714920387
aF2.1117549537427158
aF2.606117664084397
aI0
aF4.9645391097948499
aF7.7308195017197967
asg5
g6
(g8
S'\\\xd3\x95S\xd9h\x05@'
tRp403
sg10
(lp404
F11.318168279672468
aI0
aI0
aF3.820847160324377
aF1.8259711899294819
aF4.5512867210932555
aF4.2749835672767853
aF1.6822411838155091
aF8.241368574919866
aF4.164829626333221
aF6.0139445512984864
aF4.9286718790908184
asg12
I250
sa(dp405
g3
(lp406
F11.782092661743796
aF3.1224601470944524
aI0
aF0.2924426688907264
aF7.0763601839845593
aF1.8830598915545931
aI0
aF3.9930017605631685
aF7.0024217525232118
aF1.4660732461409667
aF1.5744276613130705
aF4.2540883339076991
asg5
g6
(g8
S'\xaf3\xc0%\xb3\xa8\n@'
tRp407
sg10
(lp408
F11.428899755728253
aI2
aI2
aF1.0165103124993722
aF7.1304704156498708
aF4.7790112691724449
aF1.0509295313550375
aF3.8304940392525628
aF3.5635944903023824
aF3.0058581578569439
aF6.2778722516065493
aF0.12109994258106738
asg12
I250
sa.