(lp1
(dp2
S'guess'
p3
(lp4
F10.000064618534731
aF0.69691968153861961
aI2
aF2.4069101828818118
aF6.8925500292106356
aF1.1796346249865088
aF5.3395519845955866
aF1.3755623291541639
aF2.4966946155266094
aF5.3833487799608859
aF5.9154689862029972
aF3.5547539553372784
asS'guess_score'
p5
cnumpy.core.multiarray
scalar
p6
(cnumpy
dtype
p7
(S'f8'
I0
I1
tRp8
(I3
S'<'
NNNI-1
I-1
I0
tbS'\x86\x12\xf2Y\x1c\xb0\x18@'
tRp9
sS'target'
p10
(lp11
F10.627095755789123
aI1
aI1
aF2.6267978022233507
aF1.7117463335987533
aF1.383188187608547
aF0.088231251251058004
aF7.9230818758255293
aF1.1002485328769047
aF3.1917870211648758
aF4.2210057446314249
aF0.097181245596120402
asS'num_samples'
p12
I10
sa(dp13
g3
(lp14
F9.4364817860709884
aI2
aI2
aF1.0191832005601305
aF3.0178814479022447
aF4.820474735635174
aF1.0604920042373067
aF6.1596794057819011
aF6.3305309754406327
aF4.4298044282681914
aF7.7416596451962825
aF7.9522711356009621
asg5
g6
(g8
S'\x8e\xeag\xec@\xe9\x1a@'
tRp15
sg10
(lp16
F10.968716151913744
aI2
aI2
aF5.0571399276291968
aF3.3511749816421448
aF6.3479692820805909
aF4.8930585155210657
aF5.6271165715940166
aF8.1039223110590193
aF3.5267923910153098
aF2.2658394862154267
aF4.1492358904883648
asg12
I10
sa(dp17
g3
(lp18
F10.08889852249794
aF3.6791519627452303
aI1
aF4.6137023948125906
aF3.8132313055490288
aF2.4440883680875611
aF3.273302364354346
aF2.4103801895015029
aF4.4750271961996893
aF1.1145010597819132
aF0.14339170871832396
aF6.843959930792332
asg5
g6
(g8
S'\xa0\x16\rr\x9a\xd3\xf3?'
tRp19
sg10
(lp20
F9.6815613267389278
aI0
aI0
aF3.254165479308885
aF3.3512167026822652
aF5.2812407698337047
aF3.3609779443256134
aF3.152128164172316
aF1.2741136737874288
aF0.49223308966404095
aF1.1282556948011329
aF2.5339529428430279
asg12
I10
sa(dp21
g3
(lp22
F10.874423082115698
aF2.3739479865747026
aI2
aF2.1963730669301409
aF2.85100880159938
aF6.1859717710771083
aF1.6836358529879281
aF8.6327102077537994
aF9
aF4.3253432466856516
aF8.7146774673135123
aF6.5308797837240942
asg5
g6
(g8
S'\x8fww\xc1\xad\x82!@'
tRp23
sg10
(lp24
F11.679399505125332
aI1
aI1
aF1.6409325787631621
aF1.890765436778548
aF6.0225253800330973
aF0.15758806108729073
aF1.0747987034990953
aF7.488039554920741
aF1.0571071930502716
aF0.20330435082185072
aF2.0431548144910896
asg12
I10
sa(dp25
g3
(lp26
F9.5400472576830744
aI0
aI1
aF2.7753186032298247
aF3.0065051292489606
aF7.9168398545283898
aF0.80719121636708391
aF4.3497736786457946
aF8.7059394940173505
aF5.6666650000000001
aF8.942784587578581
aF3.8852265555222822
asg5
g6
(g8
S'\xb0\x88\xce\xef\x1c\x84\x0c@'
tRp27
sg10
(lp28
F10.903050591171777
aI0
aI0
aF3.0361553098645695
aF2.3402469982870553
aF6.7825983552494797
aF4.3533638872621454
aF1.3229260206867299
aF1.427840126903773
aF2.0242686266686536
aF0.91813295111414073
aF2.4548644676140818
asg12
I10
sa(dp29
g3
(lp30
F9.6509875112359289
aI1
aI1
aF1.3892954521623595
aF4.8867305402562806
aF0.81208079047596504
aF4.1793461666884353
aF7.6391129952503416
aF1.540021815294049
aI0
aF4.3414087286357965
aF7.7679186816758543
asg5
g6
(g8
S'=n\x9d\x0e \xd6\x05@'
tRp31
sg10
(lp32
F10.463539823226419
aI2
aI2
aF2.0523079170636414
aF0.29787916761910682
aF0.82056829484563432
aF2.7320608433218254
aF5.3545147241541429
aF4.2629367482220415
aF1.5165161828510563
aF7.9605358490514719
aF1.0335781205105226
asg12
I10
sa(dp33
g3
(lp34
F8.5570441717450478
aI0
aI1
aF3.4497195762527708
aF6.9325987042081714
aF1.0592720735162127
aF3.2173528892085921
aF7.1937828189854418
aF1.9658065180731721
aF4.3376100565393543
aF1.7721147874625323
aF6.765578655083111
asg5
g6
(g8
S'zUh\x18\x89Z\x13@'
tRp35
sg10
(lp36
F9.8340970478790997
aI2
aI2
aF3.5302045434437503
aF8.8016592576838963
aF7.2329806503754881
aF2.8115319849682225
aF6.808604322442565
aF6.7576909717197777
aF5.2820417914606637
aF8.2421557971915576
aF6.2141261884478913
asg12
I10
sa(dp37
g3
(lp38
F11.203307411357818
aF1.8081911917759415
aI0
aF3.1765006261992057
aF5.1050381584885169
aF3.3051937005675098
aF2.1168621147255173
aF9
aF2.1292303036046203
aF2.9149383038250973
aF8.4043068745539724
aF8.5581803488858341
asg5
g6
(g8
S'#\x11\x1e\x82d\xf5\x08@'
tRp39
sg10
(lp40
F9.6792855437679002
aI2
aI2
aF3.0033191678720867
aF0.40387363393574427
aF5.8248599995898047
aF4.0111440837984311
aF5.8757213717239232
aF1.0059603486075024
aF0.48786063386577805
aF4.3910457461546315
aF4.7175358931163851
asg12
I10
sa(dp41
g3
(lp42
F10.617529200337549
aI0
aI2
aF5.6666650000000001
aF1.616565396832581
aF6.5715486652285398
aF3.2991784245541504
aF6.5937291729018153
aF8.0480822755227521
aF2.5891456549960381
aF3.6880375778380006
aF5.1787328236458903
asg5
g6
(g8
S'\xa7\x0eqb\xde3\xf5?'
tRp43
sg10
(lp44
F9.597903734625767
aI0
aI0
aF1.4168437912750005
aF3.2197498477729103
aF4.775653932204782
aF5.4579333827685366
aF5.1946253981427102
aF7.2699197817264514
aF4.8045560705192365
aF3.3373046346873676
aF8.9891536765317372
asg12
I10
sa(dp45
g3
(lp46
F11.256611416110349
aI1
aI1
aF2.9358163822054451
aF2.9401768854088033
aF4.4562617630064967
aF0.13339559624172104
aF1.5026322186479724
aF5.1856653308137206
aF2.7701845655912249
aF4.7342089456937382
aF1.9478918200710442
asg5
g6
(g8
S'\x1f@\xeb@O\xa3\x12@'
tRp47
sg10
(lp48
F10.993387315312898
aI1
aI1
aF1.0694548195915152
aF4.2593692363175508
aF1.5153181490405925
aF4.1520050257593848
aF1.5284203632294935
aF7.5438183965768184
aF2.1902673041710643
aF4.3974625395653977
aF8.4354614927662546
asg12
I10
sa(dp49
g3
(lp50
F11.639047989642355
aF2.4120531811235661
aI2
aF0.13687425636484585
aF1.4999537565408438
aF7.1137538279518164
aF0.76511302134459702
aF2.8959112155737552
aF1.3810107493199877
aF4.846094811157001
aF5.8163616416746038
aF8.7814468051172483
asg5
g6
(g8
S'7\x15\xb3\x86\xcb\x8c\x10@'
tRp51
sg10
(lp52
F9.8212799779350846
aI1
aI1
aF2.3812187655350914
aF7.9366580462397138
aF0.32608214931353607
aF4.276982049676854
aF4.9401535969138521
aF4.7780437319136553
aF2.9760005206039248
aF0.75957437609497946
aF1.1261199408726823
asg12
I10
sa(dp53
g3
(lp54
F10.039740170687081
aI2
aI2
aF4.1259735597845015
aF5.5699615879793747
aF1.245205944112912
aF1.928181178358503
aF2.8172538554577438
aF6.7792744421948417
aF3.9236454122654827
aF1.1809158862628277
aF1.3956303837519546
asg5
g6
(g8
S'\rhT\xee~+\x0c@'
tRp55
sg10
(lp56
F10.827156302955908
aI1
aI1
aF5.1116176302574869
aF4.445320583956307
aF2.8361161293619617
aF1.6820528860187351
aF1.4967134756972262
aF4.0927868970696553
aF4.2340436201456919
aF3.2320485136187838
aF1.5455710921191774
asg12
I10
sa(dp57
g3
(lp58
F9.5800784833391184
aI2
aI1
aF2.3955557340358729
aF6.5768785368617593
aF0.12303599933842069
aF3.2617220820963948
aF6.2466734700873667
aF9
aF4.0560734622171157
aF6.9244230077362143
aF6.2855878923347808
asg5
g6
(g8
S'\x9a\xc4\xc7\xb7J}!@'
tRp59
sg10
(lp60
F9.1432073596655581
aI1
aI1
aF3.0997880892324057
aF8.6629748898084298
aF4.4607713569799072
aF3.7569020055832918
aF1.0323979457564207
aF1.9974224439132429
aF0.21111630403217302
aF1.705198500439806
aF3.209375495030387
asg12
I10
sa(dp61
g3
(lp62
F10.947725596493537
aF4.8847543151245656
aI0
aF1.8145026295654598
aF2.6203817685583162
aF3.0553871340341248
aF1.0884658191950558
aF2.3305917665505245
aF4.6981311733007391
aF4.8159786543644953
aF3.9945416463667192
aF1.7854526013239393
asg5
g6
(g8
S'\xb3-\xc1\xd3\xb7\xd1\x11@'
tRp63
sg10
(lp64
F9.699483127164779
aI2
aI2
aF5.1847485148836006
aF8.3047399860138551
aF8.9575837616348544
aF4.9924513804085606
aF5.3766089144854723
aF4.337245247452576
aF0.57808936284168244
aF4.5165486775443338
aF6.8921958783877617
asg12
I10
sa(dp65
g3
(lp66
F9.0506593014591186
aF2.3773900472864429
aI2
aF4.2744701941096999
aF0.30642744314963866
aF2.4504910922997483
aF4.6225237939117498
aF6.5929696233358417
aF3.676086928583933
aF5.3682306028966584
aF5.5998515356072662
aF5.9823956041064124
asg5
g6
(g8
S'P\x18\xb7\xad\xcdi\x14@'
tRp67
sg10
(lp68
F8.210188344042864
aI2
aI2
aF0.26138530792032721
aF6.4232762635561302
aF7.1069785729759563
aF5.5255978215706367
aF0.80206182037686691
aF2.1630974180686686
aF1.2071790032033549
aF5.4222094216420027
aF3.0331575188450022
asg12
I10
sa(dp69
g3
(lp70
F5.8998017203993243
aF1.7587434370777824
aI0
aF3.9498751401580545
aF7.3857755890375243
aF8.2360789117556479
aF5.255713802893256
aF0.27922284540257825
aF3.6633147157395491
aI0
aF1.5091132118110935
aF7.0159312379003431
asg5
g6
(g8
S'\xa0\xfa\x81>\xc9\xb6\x15@'
tRp71
sg10
(lp72
F11.462427614212931
aI0
aI0
aF3.4008323640349367
aF2.0053682619767499
aF8.7034156711782611
aF5.0675748612967499
aF3.4792695169439565
aF7.6792498784096326
aF0.34402077616821169
aF7.764913580269357
aF6.8196575982165735
asg12
I10
sa(dp73
g3
(lp74
F10.397755233293667
aI2
aI2
aF3.718855366196149
aF1.4081539625060251
aI0
aF5.2121076107004978
aF7.3438357959773981
aF4.8738204733761412
aF1.6239867968440764
aF5.2759910374847614
aF3.6046734569774901
asg5
g6
(g8
S'\x02\xa2Fi\xb4b\t@'
tRp75
sg10
(lp76
F9.6140720556644954
aI0
aI0
aF2.7702809135687581
aF5.5571435278486181
aF0.65914568884777347
aF4.0123239777148818
aF0.6573478722901146
aF1.61746201547576
aF3.7497833183884386
aF1.8209990531598641
aF3.0892799211734854
asg12
I10
sa(dp77
g3
(lp78
F9.8925189203881878
aI1
aI1
aF3.1439311524935114
aF0.15010208876584241
aF5.6876182159000468
aF2.425082184856683
aF7.301873787148434
aF0.11849407484014818
aF0.94592329805820241
aF7.339721322140548
aF1.4142159355109809
asg5
g6
(g8
S'c\x91\x02\t\xa7\xf9\x18@'
tRp79
sg10
(lp80
F10.470056457118293
aI2
aI2
aF1.1738215771384484
aF1.6871165309186482
aF4.2473887878984415
aF1.2108703241136771
aF7.5510955987356958
aF7.0730673005177751
aF4.6410301460490286
aF1.5025602174026704
aF0.78376906879213093
asg12
I10
sa(dp81
g3
(lp82
F10.917928910258345
aI0
aI2
aF4.3508036332946256
aF0.66827488674467439
aF4.1006050719337228
aF3.9388365958163574
aF4.0864382186725781
aF3.8423554575527699
aF0.1252654266260787
aF7.0525567359295476
aF8.3699499997003848
asg5
g6
(g8
S'\x82\n]\xe7\xc2\x00 @'
tRp83
sg10
(lp84
F10.473383244999585
aI0
aI0
aF3.8808912490129202
aF6.6299400339099943
aF1.3172580328079952
aF1.8782682332448586
aF0.046759023117557641
aF2.8969740023739092
aF2.5521377394365934
aF0.84375327019706214
aF1.3840587433083429
asg12
I10
sa(dp85
g3
(lp86
F11.297698548045755
aF4.9235836731677569
aI1
aF1.2352868830693904
aF7.2254501296824811
aF7.972806254902622
aF4.5323721610183023
aF7.2282878996179987
aF2.4329104226101723
aF2.7238203197673991
aF2.6585394888081928
aF4.1660416484592986
asg5
g6
(g8
S'\xda\xc1\x83 t\xd6\x12@'
tRp87
sg10
(lp88
F10.104800994042403
aI2
aI2
aF5.4998594539821744
aF4.0306809896793645
aF5.8267008754652352
aF0.42189684698441715
aF4.8895164376699913
aF5.7718642633996708
aF1.4624253149651028
aF8.5430092954543468
aF5.7533983557604227
asg12
I10
sa(dp89
g3
(lp90
F10.07727805537559
aF1.7113161670889727
aI2
aI0
aF0.48494548576436625
aF5.9151455890601499
aI0
aF8.5362317175382838
aF5.5405167282440475
aF4.4043049045893152
aF2.8921182378099721
aF1.3924994703795004
asg5
g6
(g8
S'i\xaaG\xcc\x9cO\x0b@'
tRp91
sg10
(lp92
F9.1955230142375939
aI2
aI2
aF3.7151381691533518
aF6.5299734204423991
aF8.8836002683568474
aF3.9344784627362794
aF6.4400262257756786
aF8.7232624943479742
aF1.3447681601170478
aF1.377607152455538
aF1.3971794508097823
asg12
I10
sa(dp93
g3
(lp94
F9.3406266727864224
aI2
aI2
aF3.3647681808452212
aF2.4029221907704472
aF5.9672590972248098
aF3.0325079012233376
aF0.03827245716469363
aF8.3608845205517284
aF3.2775918052022766
aF4.4061973494090196
aF3.7542417515696109
asg5
g6
(g8
S'~\xa4\xc4K`\x99\x03@'
tRp95
sg10
(lp96
F9.9454715255579877
aI1
aI1
aF0.54697153111347629
aF4.242381382884183
aF7.9637318633228267
aF1.4001664133349947
aF2.8474757008535057
aF3.9724736655871982
aF1.5563957056172413
aF8.318062849685143
aF2.133563482204945
asg12
I10
sa(dp97
g3
(lp98
F11.548021581724726
aI0
aI2
aF3.5166280597710182
aF6.1162348136417668
aF2.0331756868773034
aF1.7513853118496694
aF7.1494545440164154
aF5.5579636900817189
aF4.0588731494133201
aF1.5195598237897905
aF4.6813862116883227
asg5
g6
(g8
S'B\xde\x8a\xa7\xde\xb9\x0e@'
tRp99
sg10
(lp100
F9.1600034780995081
aI1
aI1
aF3.5467375704360253
aF6.8361921678513182
aF5.200956466961193
aF0.53275219631951132
aF1.2782777698155829
aF6.1846047943220483
aF0.952209864241093
aF8.844767789773023
aF3.9186643489439925
asg12
I10
sa(dp101
g3
(lp102
F9.2650728642768883
aI1
aI1
aF3.5253360284653139
aF8.4461176460178997
aF3.7330596919435193
aF0.37090944218129168
aF7.9024568714223689
aF4.1235921626636962
aF3.0549791436795823
aF2.7240638464013234
aF4.707632472381527
asg5
g6
(g8
S"\xe1'\xb2\x88\x03\xe8\x0e@"
tRp103
sg10
(lp104
F8.6743953039483301
aI2
aI2
aF3.7904270985745518
aF8.5217688084056267
aF3.2381125630818892
aF4.2661608161516407
aF4.873768586534414
aF8.4577797854087393
aF2.7685996126235146
aF8.0763597604254347
aF1.0993842119137878
asg12
I10
sa(dp105
g3
(lp106
F9.2777559677758052
aF0.95166900641710794
aI0
aF5.6666650000000001
aF8.0095958638961022
aF5.2335757103492773
aF1.3641952274913465
aF3.3327042862752352
aF1.5402857871825755
aF4.6153970519077649
aF5.6546565904268027
aF0.20482943501591244
asg5
g6
(g8
S'\xc5i\xeb\xe3\x97!\x07@'
tRp107
sg10
(lp108
F10.795116588263374
aI2
aI2
aF3.5507900996620609
aF6.8262877743325641
aF3.8064560848588376
aF4.8277966611349834
aF5.8247030931778809
aF0.47034422836783363
aF3.2874908123474986
aF8.7835272836205665
aF6.6829795834379011
asg12
I10
sa(dp109
g3
(lp110
F10.886418644197676
aF1.6732400316342504
aI2
aF3.7243956692650451
aF4.6403152736177864
aF6.7597167615091109
aF0.25788252982215659
aF6.0247041174264133
aF2.2709558390658473
aF1.6404802266369312
aF6.8440830634621825
aF1.4008872392574614
asg5
g6
(g8
S'\xb2\x08\x1f28\xee\x0b@'
tRp111
sg10
(lp112
F11.62469145828814
aI0
aI0
aF1.2714298925516416
aF6.9347105909865707
aF4.8714622253878241
aF1.9947061905295149
aF6.4223716569855673
aF1.9070032424618781
aF2.610051161630691
aF4.3400798714401763
aF5.3481868140404787
asg12
I10
sa(dp113
g3
(lp114
F10.642456403329104
aI1
aI0
aF3.5998171135856403
aF6.2824186629285208
aF5.1998820159599317
aF2.6913563526748572
aF2.2249787860310484
aF3.995829875392741
aF3.9436654295115168
aF3.275192401519508
aF4.3095529933063421
asg5
g6
(g8
S'\'\x91E\xaa\x0f"\x0c@'
tRp115
sg10
(lp116
F11.484849949473723
aI2
aI2
aF0.76516280365880385
aF4.2964056298967988
aF4.1907079317876974
aF3.1005251208997846
aF2.2217246458802182
aF8.5270599592702059
aF1.6039124450907165
aF6.5528886393523695
aF8.0825729880283816
asg12
I10
sa(dp117
g3
(lp118
F8.6916157539068646
aI1
aI2
aF2.3488925459291274
aF4.5737029887029079
aF4.0954214372983948
aI0
aF7.8617258866751554
aF3.7714168667412857
aF4.242297007484833
aF8.5281757218835459
aF2.5516678553212784
asg5
g6
(g8
S'\xdc\x14r0\x18\xd6\r@'
tRp119
sg10
(lp120
F10.297189292612011
aI0
aI0
aF1.478770898853063
aF8.6069310095321416
aF0.048434512653483419
aF3.2381560472106279
aF4.5350136433609114
aF6.2251960969780704
aF2.7839646514599461
aF2.0499811476976215
aF8.7613005473930201
asg12
I10
sa(dp121
g3
(lp122
F9.2731878012233508
aF4.358140531878373
aI1
aF1.7584318269412003
aF2.290609741672923
aF1.2169683766760788
aF1.0867164838427372
aF8.1479872220366953
aF8.2693575930075731
aF3.6391265675298885
aF0.56167401979170006
aF6.2116666898361723
asg5
g6
(g8
S'"\x90\x06m\xce\x91!@'
tRp123
sg10
(lp124
F10.27203069977317
aI2
aI2
aF5.217677525533019
aF8.3887191301545752
aF4.5969332766183735
aF3.0314176083896807
aF4.01027571709957
aF5.4218002438331272
aF1.213648042344408
aF4.5588523448684599
aF0.2522306612213554
asg12
I10
sa(dp125
g3
(lp126
F10.339372381024859
aI0
aI0
aF1.2281016447895641
aF3.0781748431857912
aF7.4873508055382123
aF1.9538438481701843
aF5.2012216348145461
aF5.8530205103936783
aF5.6666650000000001
aF8.0040947285233557
aF3.0791162342823464
asg5
g6
(g8
S'\xb5\x17\x05g\xe9\xa7\x14@'
tRp127
sg10
(lp128
F10.644423982864813
aI1
aI1
aF3.4431178785888417
aF8.331478337161883
aF7.3074925029997662
aF0.61319749820172853
aF0.33702943015562103
aF3.1543765485265602
aF3.5107811576254551
aF7.5232369227057756
aF5.251603155005359
asg12
I10
sa(dp129
g3
(lp130
F9.7679125828227757
aI0
aI2
aF1.8691427829446488
aF5.4077866089127298
aF7.2559680694392901
aF1.6031366239546236
aF2.4289781496563148
aF4.069428839169106
aF4.0673599392969297
aF6.3868852202614557
aF6.3566101322676527
asg5
g6
(g8
S'R.\x98\x0eR\xb8\xff?'
tRp131
sg10
(lp132
F9.5198534861761619
aI0
aI0
aF3.2301220558346295
aF7.9964015853434844
aF5.5573626329874459
aF0.82936873878859196
aF0.11682575002581641
aF4.2748942817124078
aF0.62795153708107887
aF2.3898327363429019
aF7.7423965425354222
asg12
I10
sa(dp133
g3
(lp134
F11.252534325768957
aI2
aI2
aF1.9446954227345559
aF8.0769743086260473
aF4.3060268088354832
aF3.9859205042451631
aF0.19745381941444726
aF2.2812114132453942
aF4.3327193785660443
aF2.7165179705987046
aF3.5068437711053324
asg5
g6
(g8
S'\xefA"6h1\x10@'
tRp135
sg10
(lp136
F10.631391588005526
aI1
aI1
aF3.1115557553487188
aF0.33274330272553265
aF4.7965619040616421
aF2.7208592824837603
aF5.8612666695790754
aF5.4818838739194824
aF3.2602441687960741
aF0.67689626655288759
aF4.6380797584707079
asg12
I10
sa(dp137
g3
(lp138
F9.5105255177179373
aF2.3147610237944121
aI0
aI0
aF7.49861029240419
aF5.205565272926199
aF1.7723986544675352
aF6.5315338434163763
aF1.3256749566762809
aF5.2263910918323324
aF8.8650863770128296
aF2.4280104299055632
asg5
g6
(g8
S'\xa0\x12\xd6\x1e\x1a\x11\x10@'
tRp139
sg10
(lp140
F10.629778390160794
aI2
aI2
aF4.2702892040294085
aF0.32927701162390832
aF3.2931255341262764
aF3.6613990224773461
aF0.6249309852781374
aF1.1347581514820844
aF2.7854482189251213
aF4.604661825627713
aF5.2206998209368196
asg12
I10
sa(dp141
g3
(lp142
F8.4734710311967572
aI2
aI2
aF0.96863519823292488
aF3.7295148064102235
aF6.7397867923705119
aF1.9115934717872745
aF2.8356174745849048
aF0.87602456846962917
aF1.3508601505902982
aF5.7658392620369705
aF4.7778834815895648
asg5
g6
(g8
S'\xf0\xbf\xe8\xd52\xd3\x12@'
tRp143
sg10
(lp144
F9.062707450844611
aI1
aI1
aF1.457018731446353
aF7.6258741976861684
aF0.69710373476203813
aF4.902205727183274
aF3.1519543206188243
aF6.4223670134120647
aF4.7423076866135307
aF6.8460651455628954
aF4.0049264660768333
asg12
I10
sa(dp145
g3
(lp146
F9.6390283056673312
aI0
aI1
aF5.6666650000000001
aF1.4307578419531306
aF1.6986121693683867
aF3.109462858148953
aF6.8060385912419141
aF0.86182298436921823
aF4.6887680180813449
aF8.0775984845671545
aF0.84798137259771322
asg5
g6
(g8
S'\xd8\xc7\xf5S]Y\x10@'
tRp147
sg10
(lp148
F8.434214257393192
aI0
aI0
aF5.3530784533089824
aF8.869432430062032
aF3.5847573643355335
aF5.6327584833647428
aF3.9277202711680528
aF6.7273808400372381
aF5.0680807568501196
aF4.4151684477443132
aF3.6609287945669973
asg12
I10
sa(dp149
g3
(lp150
F12.159463430186666
aF3.9894069116281647
aI0
aF3.1475200507420742
aF8.1897712611032176
aF1.3238813313083324
aF1.2427180031278133
aF3.901263072391028
aF2.5899472395214911
aF2.6420169786354628
aF3.7249375597905416
aF1.3420382967417357
asg5
g6
(g8
S'E\x87\xf0\x00\xd6\xaf\x02@'
tRp151
sg10
(lp152
F9.5187065370206785
aI0
aI0
aF1.0276921706223061
aF7.5843248667522118
aF0.55187472013405592
aF5.6359795135288939
aF6.749741979576787
aF7.3057940585252217
aF3.7394242875273123
aF3.0739926928160037
aF4.2601930344343666
asg12
I10
sa(dp153
g3
(lp154
F10.226947414436083
aF3.0377083500981557
aI0
aF1.9519831339746563
aF3.6521647312717578
aF4.4063821211652403
aF4.5598866503917375
aF3.5003318638552123
aF7.8969863603122299
aF5.6666650000000001
aF0.34924664834310182
aF3.0136766305583764
asg5
g6
(g8
S',\x89c\xceX\xe6\x12@'
tRp155
sg10
(lp156
F10.130885067054558
aI1
aI1
aF1.3780998816788153
aF3.9716503306250255
aF6.8867698434701214
aF0.49616798836976667
aF1.1798251250520122
aF8.1604830914204598
aF4.9199319499254521
aF5.9549450935293065
aF4.9572091744034701
asg12
I10
sa(dp157
g3
(lp158
F12.33333
aI2
aI2
aF3.8109002874362568
aF4.8718793379812935
aF4.956302038635183
aF0.81142388581206215
aF1.9319613516270198
aF2.2894643623496305
aF2.2951483188293462
aF8.004427266306509
aF0.55528141848473533
asg5
g6
(g8
S'<y\xfek\x03?"@'
tRp159
sg10
(lp160
F11.051922448493256
aI0
aI0
aF1.4867579670205739
aF0.86328570044986619
aF6.1749845070946403
aF1.7489900602701387
aF2.6297471459894819
aF5.5140375183640664
aF1.0686255132950284
aF2.2559400053140952
aF0.26068673293209399
asg12
I10
sa(dp161
g3
(lp162
F9.5402071149353276
aI2
aI2
aF0.54517949219483053
aI0
aF6.9181855900606619
aF5.6666650000000001
aI0
aF8.229742711986491
aF2.7140563754124876
aF5.1119499940252853
aF2.9624650260880401
asg5
g6
(g8
S'\x9fZ\x13\\9\x8c\x14@'
tRp163
sg10
(lp164
F9.7624093120570912
aI2
aI2
aF4.7779573513273004
aF2.2255931912246387
aF5.4480314751217236
aF5.1341355018204631
aF4.3791908669253488
aF5.5532556234399575
aF5.0827580505955856
aF1.5067417967960368
aF5.7517039404997918
asg12
I10
sa(dp165
g3
(lp166
F10.487641988985541
aI2
aI0
aF1.7141805842772588
aF6.9315528682191516
aF5.4815959693404146
aF4.3382221658012954
aF4.6783752340088274
aF6.4532160926800683
aF5.0914354941295166
aF0.010290225966970601
aF5.6614336027943031
asg5
g6
(g8
S'\xf7\x07\x12\xec@\xba\x0e@'
tRp167
sg10
(lp168
F10.136012069257339
aI2
aI2
aF4.020095261610658
aF7.0272080170915423
aF7.4979931031939735
aF1.1883276357691117
aF0.30368726294016235
aF6.1626149817998437
aF5.5276605941917056
aF7.3893469196906594
aF5.4561652815341013
asg12
I10
sa(dp169
g3
(lp170
F9.7330396876268797
aI2
aI2
aF3.9173831944999566
aF4.7159729974399704
aF8.5288564632186024
aF2.7131297409195727
aF3.4118048988183296
aF2.2903966184618283
aF5.2979597280923612
aF4.0675134371846804
aF3.5386484346243199
asg5
g6
(g8
S'\xc0\xdbp\xfd\xac\xdf\x12@'
tRp171
sg10
(lp172
F9.9480477657050095
aI1
aI1
aF5.3876457044765633
aF7.2372567221862871
aF7.2858756985091828
aF1.3830478373991624
aF4.4935893816504437
aF6.137790096882255
aF1.4099116650485666
aF7.0452973985706642
aF5.6670952795378078
asg12
I10
sa(dp173
g3
(lp174
F9.1853307277545628
aI0
aI2
aF4.4153022573677152
aF3.8142215011245884
aF1.1355390941879278
aF1.1201966345434513
aF8.9953204333408898
aF6.1926297768544085
aF0.43338734073632446
aF0.58060137812051538
aF5.9861632849652704
asg5
g6
(g8
S'#R{\xf9v\xa8\xf7?'
tRp175
sg10
(lp176
F9.3908266684912025
aI0
aI0
aF1.0025817946060696
aF0.83341785975778282
aF7.3272246109535235
aF3.1951046244675192
aF6.3713170378233492
aF5.5345801409292754
aF2.5023543045511616
aF6.8947840538935328
aF0.310742007790765
asg12
I10
sa(dp177
g3
(lp178
F8.397235927125962
aI1
aI0
aF5.6666650000000001
aF7.1120907119166388
aF5.7057356485373933
aF4.141150997425032
aF6.3550878685203704
aF5.2449135667856535
aF2.8870069636633433
aF3.8755858681631534
aF3.6483245947639684
asg5
g6
(g8
S'\xce\xfa\xf08\x9a\xc8\x0f@'
tRp179
sg10
(lp180
F10.528913278992343
aI1
aI1
aF0.98111073544909466
aF2.2979395730983585
aF4.7586653955717084
aF4.7490948773840591
aF5.2203385777966558
aF2.3347307744446089
aF4.6929315602984794
aF3.8758173070888153
aF2.5194307940049843
asg12
I10
sa(dp181
g3
(lp182
F8.9678458857077388
aI0
aI0
aF2.9472471627709025
aF5.0650625359509451
aF3.5049410210193885
aF3.5913948033227587
aF1.600098919550663
aF5.8316526096980201
aF0.58518273582018132
aF4.2002073383006993
aF7.0771469348607132
asg5
g6
(g8
S'\x0bAo\xcdU^\x06@'
tRp183
sg10
(lp184
F8.619785576790493
aI2
aI2
aF4.1927011192720194
aF3.0576281611699807
aF6.266236805035561
aF4.1294282392157475
aF3.7861124789558351
aF6.022900923906799
aF2.9444971338286314
aF7.8038034963946963
aF2.9416883109592118
asg12
I10
sa(dp185
g3
(lp186
F9.1678144728025579
aF1.7974698155203443
aI0
aF3.0863207528325201
aF7.6174118626438077
aF5.4426953017319555
aF2.5592462119035431
aF4.591944753574019
aF8.1279968328178924
aF0.45151554106087899
aF0.89013811067636661
aF4.0331545749618618
asg5
g6
(g8
S'\x8ecZ\x1anC\xfe?'
tRp187
sg10
(lp188
F10.675762266480737
aI2
aI2
aF5.3070182056778172
aF0.10077470825422818
aF2.9626376796917837
aF1.7688397244836016
aF5.7944904005500177
aF1.3741752294645821
aF3.5571121316566905
aF6.4125210649879092
aF4.06275916350116
asg12
I10
sa(dp189
g3
(lp190
F11.218586545511974
aI1
aI1
aF3.2700398294693582
aF5.0020082632364513
aF6.2337972223617104
aF1.910542793882444
aF5.7283632008005689
aF3.7504226450051119
aF1.301600772857102
aF2.547195240691956
aF7.2561163989292439
asg5
g6
(g8
S'\xb6\x98\xf4\xd0\xea \x13@'
tRp191
sg10
(lp192
F10.822052672644253
aI0
aI0
aF5.4904241525554642
aF6.5851996111272335
aF0.69768636010254292
aF3.1958474443397931
aF0.36502535357053312
aF1.5243648325962647
aF0.18378476186736095
aF2.7618414104557449
aF3.7958870893491561
asg12
I10
sa(dp193
g3
(lp194
F11.180327796867063
aI0
aI1
aF5.3319033515602792
aI0
aF3.7255902391794877
aF0.0098666832861482884
aF2.5164865398474507
aF5.8877312163047009
aF2.3948319960073223
aF8.5787236168197207
aF8.4861779277318377
asg5
g6
(g8
S'\xcb\x83P4\xfcv\x1c@'
tRp195
sg10
(lp196
F10.691455759940785
aI1
aI1
aF0.23291342644470217
aF8.8485209520511603
aF1.432671980273891
aF4.4593450484905954
aF1.2247460051612773
aF0.48645352476277404
aF3.0929030113257823
aF0.49664464892450355
aF3.3497024620655615
asg12
I10
sa(dp197
g3
(lp198
F9.2877460858467735
aI1
aI1
aF4.8191483822644745
aF1.1133275582246607
aF8.0911269477228007
aF0.23479285282355811
aF3.3351647647948504
aF4.7057857617349299
aF3.8136527837072474
aF4.3621869283266292
aF7.0306179218799185
asg5
g6
(g8
S'\x94\xb9J\xe5\xd9\x06\x16@'
tRp199
sg10
(lp200
F9.997616847289537
aI1
aI1
aF3.1091673801142821
aF3.2835064410353914
aF4.4965521433542275
aF5.5849518225271897
aF2.1520147479126317
aF5.253139570134099
aF1.042956994798919
aF8.23560876487592
aF2.7265376567831709
asg12
I10
sa(dp201
g3
(lp202
F9.5829734752084494
aI2
aI2
aF0.55418591451509203
aF4.9300503696360387
aF2.9086318065719272
aF5.2686740406862782
aF6.0380016502182539
aF4.1852220285364199
aF1.0750758741549158
aF2.8945780936859666
aF2.3755316835716922
asg5
g6
(g8
S'\xad\xd77\xcc\xd0\x01\r@'
tRp203
sg10
(lp204
F10.916301137968603
aI1
aI1
aF1.6317664850817233
aF5.885061242068395
aF7.6911553077033181
aF4.0314565536045661
aF2.9118832895059943
aF0.2763492364498088
aF1.0001782781863211
aF3.0186907171750272
aF2.9187054398163856
asg12
I10
sa(dp205
g3
(lp206
F8.4378754235316382
aI0
aI1
aF4.7396641566616822
aF3.2589812118276384
aF4.2509333138854384
aF5.6666650000000001
aF6.8202907162361504
aF8.8669358404933458
aF0.39476462708129223
aF6.9028723854859839
aF3.5009128379902053
asg5
g6
(g8
S'\x0b\x19wme\xb9\xf7?'
tRp207
sg10
(lp208
F8.2828733829471997
aI0
aI0
aF4.3898349201505358
aF6.7742273584487389
aF8.114494167804013
aF4.1939634707109112
aF7.3414777742223167
aF2.0887397828289087
aF0.49445226056240033
aF4.2612850471003814
aF3.4391335458867109
asg12
I10
sa(dp209
g3
(lp210
F10.809378913391921
aI1
aI1
aF3.5662609912828307
aF7.6874884950603457
aF2.8626829719109788
aF2.9319819579867681
aF5.1038530023863427
aF1.2274769651402453
aI0
aF6.7088982171145517
aF3.7169637189964151
asg5
g6
(g8
S'\x94\r\xd5gI\\\x0c@'
tRp211
sg10
(lp212
F11.011762051439604
aI0
aI0
aF0.3439990274413221
aF3.0829665194905078
aF2.5638249525163346
aF0.50032208714623516
aF7.2749356728675645
aF8.4949634482579395
aF1.7415942566067752
aF2.513523859305077
aF7.7402856721819981
asg12
I10
sa(dp213
g3
(lp214
F10.995998208288565
aI1
aI1
aF5.4410191586333445
aF1.9322485551514281
aF7.2323523368109806
aF4.7625987804042831
aF2.2975557524669608
aF4.2625378239854692
aF2.982846437188424
aF0.9401062406053412
aF7.2721378980782116
asg5
g6
(g8
S'\xc0s\xe5\x12\x95\xd9\x13@'
tRp215
sg10
(lp216
F10.914148207237631
aI1
aI1
aF1.7721042994271312
aF1.3871036731354951
aF4.1551927646888904
aF0.99583906730225813
aF1.6727733102972309
aF7.4323017029915883
aF1.1790324380482715
aF7.8698101539065792
aF5.7038087504766217
asg12
I10
sa(dp217
g3
(lp218
F9.8976869693569078
aI0
aI0
aF2.9922861650811048
aF3.5303375737164266
aF6.943098183430326
aF0.48810188621792372
aF7.5422172489235582
aF1.8677571313906738
aF4.618164610709055
aF7.4458390190224604
aF5.7785237328438139
asg5
g6
(g8
S'Q\x1aA<(\xee\x0c@'
tRp219
sg10
(lp220
F8.5768663938431153
aI1
aI1
aF5.4991356930365356
aF6.7941000676207599
aF1.6106733273158611
aF1.0850097891427857
aF1.263339140939955
aF4.8693210693682074
aF3.005245240539907
aF5.3855089359777137
aF4.5450220358184721
asg12
I10
sa(dp221
g3
(lp222
F9.2329583687478483
aF2.8370660691003113
aI1
aF0.60491350190532389
aF9
aF6.7444233778962044
aF4.4882187712133073
aI0
aF5.0151239460515722
aF0.82289691986361035
aF3.5325712562001339
aF8.9378935789649478
asg5
g6
(g8
S'\x80\x0f\xe7\x97\xec\x1b\x01@'
tRp223
sg10
(lp224
F8.4512023591102157
aI0
aI0
aF5.1368054279181603
aF0.7898726885219538
aF3.1365086186948803
aF5.2648130068225214
aF6.1194207220173436
aF8.1033680328324067
aF2.3383665351084475
aF7.8414325405249272
aF0.065406406870897604
asg12
I10
sa(dp225
g3
(lp226
F10.240240165805142
aI1
aI2
aF1.3740588939463587
aF2.4131578028604244
aF7.6004451591981681
aF4.0283664313260266
aF3.9761925426414395
aF3.5259315346155162
aF0.57449147438723158
aF4.175256680391632
aF8.4656047539805748
asg5
g6
(g8
S'\n\xe7w\xd7\xa3\x11\x19@'
tRp227
sg10
(lp228
F9.740982374213635
aI0
aI0
aF5.0606942951966296
aF0.83002676843102963
aF5.6439828883860157
aF4.1978627806374673
aF5.5005169567905368
aF2.880856487247772
aF2.0296500578746852
aF5.5361480801540255
aF8.2809282753879199
asg12
I10
sa(dp229
g3
(lp230
F8.8382914793952061
aI0
aI0
aF1.4470922001054174
aF5.827050373678242
aF4.3950182903265835
aF2.8537611330841055
aF7.7707954155021435
aF6.6519364154004599
aF1.6102700623389563
aF6.9171220753860494
aF3.8157124178290136
asg5
g6
(g8
S'\xdd\xa20\x92\xa85\x01@'
tRp231
sg10
(lp232
F11.384722191526068
aI1
aI1
aF2.7088826342800796
aF2.7344771996932491
aF4.7644078240058167
aF3.1509155259045301
aF7.0853125084745514
aF4.0189521196578983
aF0.091722963967331969
aF4.2981337014049252
aF6.5418321296272222
asg12
I10
sa(dp233
g3
(lp234
F10.072192611966342
aI0
aI2
aF5.0133867858213712
aF3.8645453063515998
aF4.340361309278598
aF2.2490035725289057
aF2.0012902569820841
aF0.60827131745918184
aF4.974188379615132
aF4.9281930757361545
aF8.1341381353609368
asg5
g6
(g8
S'n\x14\xa5\xdbCU\x13@'
tRp235
sg10
(lp236
F7.7772860260779932
aI1
aI1
aF2.3093770234935107
aF3.1414528829579051
aF3.3436277805921071
aF1.5165303303960715
aF8.3005517525584409
aF8.3137612814335267
aF2.9816118060759269
aF7.2507663145193666
aF4.9142494290852596
asg12
I10
sa(dp237
g3
(lp238
F9.8123996483528408
aI0
aI0
aF3.214429184113468
aF3.4610649482269293
aF4.0789587216248648
aI0
aF2.7738244710453936
aF5.203738151900879
aF2.9253752723528148
aF2.113989169207906
aF7.2248069159565169
asg5
g6
(g8
S'x\xb0?t\x85C\x13@'
tRp239
sg10
(lp240
F9.7221861967097833
aI0
aI0
aF0.03034937023915342
aF0.30011784510156103
aF2.3287257572328794
aF2.9399658862134173
aF7.3158052607675392
aF4.8240462124714227
aF1.0714915808130776
aF2.1765667100251291
aF7.3679731141794687
asg12
I10
sa(dp241
g3
(lp242
F9.6818117258602765
aI0
aI0
aF2.1673384811385477
aF8.4722083211431283
aF8.3378182598594552
aF4.6986084399082255
aF7.8188877324501265
aF4.1580966779180457
aF5.0672931278156144
aF4.8208613994106315
aF5.2950893131219052
asg5
g6
(g8
S'\x04Vt\x87\x9e\x89\x16@'
tRp243
sg10
(lp244
F10.317980198245621
aI2
aI2
aF3.697270947522862
aF2.6495540561956958
aF1.6542125812381909
aF5.2958612897092427
aF2.196175889499469
aF5.5556594296301363
aF2.5536428507509736
aF4.9747349286649793
aF3.9372680293432096
asg12
I10
sa(dp245
g3
(lp246
F9.9153240429889014
aI2
aI2
aF1.6661268839112207
aF7.8345259490734636
aF7.8169321760631973
aF1.7430187199511429
aF2.0744954258269583
aF7.7861426515656218
aF2.2125344154510809
aF0.22576069351079897
aF8.908239325246047
asg5
g6
(g8
S'\xb6\x9a}m\xd2b!@'
tRp247
sg10
(lp248
F9.1006450189147419
aI2
aI2
aF1.8473913553147427
aF4.7414442014399301
aF2.6691364253802821
aF2.8123311157562343
aF0.22488101068298771
aF7.6892263478560716
aF2.5386166360564171
aF3.2038609778133513
aF0.74778337881112666
asg12
I10
sa(dp249
g3
(lp250
F11.938007378773973
aF1.2055500448889531
aI1
aF0.12584176077985831
aF1.3684270838397836
aF5.2294257069960439
aF3.1264125930228723
aF0.75070468115093947
aF6.7030204019083763
aF5.6205144915096854
aF7.3228249937253107
aF0.98101862474226131
asg5
g6
(g8
S'\xbcN\xea1\t\xe2\x06@'
tRp251
sg10
(lp252
F10.119228402195997
aI0
aI0
aF3.8920092173451724
aF2.4027405228651397
aF8.9090010858255315
aF3.9157335884566056
aF8.4686442186644637
aF5.6311563244864598
aF0.45700812578359878
aF1.0007746337555008
aF0.77994349721813072
asg12
I10
sa(dp253
g3
(lp254
F9.2301853372315961
aF4.4137423983992967
aI2
aF1.9684307121319913
aF3.4846702367755262
aF3.5924947677008001
aF5.6666650000000001
aF8.3558152570097093
aF1.2709268640833333
aF5.6666650000000001
aF4.1249095573417955
aF2.6547138956729177
asg5
g6
(g8
S'_\x93\x15\xb9\xa8\x84\x1a@'
tRp255
sg10
(lp256
F10.423251614386666
aI2
aI2
aF1.1324933214928485
aF2.3388841243474734
aF3.5915833544507221
aF1.7557516318115145
aF6.1096299804714267
aF6.7469065177292427
aF3.5907021961424355
aF8.1028633645223724
aF7.5350001083907792
asg12
I10
sa(dp257
g3
(lp258
F10.537576977042654
aI2
aI2
aF3.9553062638316954
aF5.4240979789778532
aF4.9307562200677273
aF0.011097744874604633
aF7.4497161376953045
aF6.3556466374926917
aF2.6499082669761762
aF3.8089122579142023
aF3.7227398085963568
asg5
g6
(g8
S'\xe8\xd2\x80\xa7*;\x0e@'
tRp259
sg10
(lp260
F9.4552808145562821
aI2
aI2
aF2.6493633062744237
aF7.5975534131879758
aF0.46735587081514118
aF3.5300809030352664
aF7.7434851063133063
aF8.4339939917992126
aF4.4787124364357211
aF0.54773080640322236
aF4.270626756093403
asg12
I10
sa(dp261
g3
(lp262
F10.085351901594066
aI0
aI0
aF1.2842742659563657
aF5.9984828099473742
aF9
aF2.3382206418519842
aF2.9515817159445992
aF4.6423128883374645
aF4.5151552569151399
aF3.3741783897056088
aF1.9285422074822804
asg5
g6
(g8
S'\xcb\xfc\x92\xa5\xaa\xaa!@'
tRp263
sg10
(lp264
F9.6831380371133395
aI0
aI0
aF4.867460156506807
aF6.0040975458497883
aF0.92605905117952847
aF1.000247411792121
aF6.120301513864475
aF8.1864474140907095
aF3.9836259763724078
aF7.4300348297693581
aF1.1240744883202654
asg12
I10
sa(dp265
g3
(lp266
F10.35705946110944
aF1.1067184299654298
aI2
aF1.582863236942138
aF2.8508579568607488
aF1.8003146136407242
aF5.6129984253192493
aF5.6282788532858667
aF1.5817586218224755
aF0.43745436300674467
aF5.5995797293896699
aF3.9741215545542734
asg5
g6
(g8
S'\x017\xf8\xacH\x00\x13@'
tRp267
sg10
(lp268
F10.848634560754563
aI0
aI0
aF3.2805268470861844
aF6.2884543185618318
aF0.23145880375692296
aF1.7007216169288568
aF2.9036549175478923
aF1.9959263182598894
aF4.7613991447978838
aF0.80859177903560331
aF6.9101416988735407
asg12
I10
sa(dp269
g3
(lp270
F9.5952734396897643
aI1
aI0
aF3.080487488846174
aF6.0470909994494315
aF3.4547186201422009
aF0.64510236034898305
aF2.9813257651919018
aF5.8631386918938748
aF0.38086297439234673
aF7.4537572640528271
aF1.183038153774671
asg5
g6
(g8
S'/"\x1ag+Q\x0b@'
tRp271
sg10
(lp272
F10.192483258183197
aI2
aI2
aF0.84727178422791172
aF6.9502701612163627
aF1.7688150108969205
aF2.5945538507366344
aF1.3604911921213865
aF8.7248396874113094
aF4.5189757379922462
aF6.897278828040931
aF6.4325793622218335
asg12
I10
sa(dp273
g3
(lp274
F9.7538367563289423
aI1
aI1
aF5.1069127759839397
aF7.3009193549986637
aF2.0532214148875001
aF5.2624881942426898
aI0
aF8.6749029434075329
aF0.65368181847515139
aF6.9596838710755264
aF3.8094181727276877
asg5
g6
(g8
S'\x84<\x93\x88W\xbc\xfe?'
tRp275
sg10
(lp276
F10.272972841249322
aI2
aI2
aF0.71857715208558492
aF8.706732678354733
aF6.5018284139268667
aF1.7357451517782716
aF1.5981963855155648
aF8.75600667157142
aF3.4328858353438663
aF0.48846724757279747
aF8.9975892891957443
asg12
I10
sa(dp277
g3
(lp278
F10.531150970707698
aI2
aI2
aF5.6666650000000001
aF0.17583604136677966
aF4.4846260869523942
aF0.70403647609619513
aF6.2250621598621567
aF8.8022068257451416
aF3.4922107667692437
aF7.137914648645368
aF8.5836102568030963
asg5
g6
(g8
S't@#4\xfcK\x11@'
tRp279
sg10
(lp280
F8.939932385691705
aI1
aI1
aF4.1838989224747802
aF0.66438825258042
aF6.5138561008039471
aF0.7375818218495005
aF3.8848854502995405
aF7.856586898873573
aF4.0367836763268441
aF7.8434723729412079
aF8.5038831597289288
asg12
I10
sa(dp281
g3
(lp282
F9.1686898941228989
aF1.8981373076310746
aI2
aF3.1225065678509822
aF7.7878102843399342
aF7.9122978496535339
aF5.0957133462988198
aI0
aF8.0616002348674627
aF5.3663255683462525
aF3.6862835853039604
aF3.1084251116031858
asg5
g6
(g8
S'In\xc6\xda\xda\x93\x12@'
tRp283
sg10
(lp284
F10.632975912880489
aI2
aI2
aF4.9044282387872586
aF0.31369724021401901
aF3.3503275443454794
aF2.0524947079693909
aF2.6887150512519442
aF6.2798956248056861
aF1.5695506431881376
aF6.0402802875444097
aF1.8381676575092125
asg12
I10
sa(dp285
g3
(lp286
F10.809667735228667
aF3.4950647769859113
aI2
aF4.5791369084835223
aF5.103044509388992
aF4.0269137637073644
aF0.4865700326152933
aI0
aF1.3345795262414848
aF0.90437232627233133
aF6.0600189375982287
aF3.5916055306192387
asg5
g6
(g8
S'\x10\xd0\x06^P \x11@'
tRp287
sg10
(lp288
F9.1008491772012015
aI2
aI2
aF0.22904236801746816
aF0.37985679484244017
aF0.49783179724784354
aF2.7146105582381379
aF0.17885188522173234
aF3.9596031822740501
aF0.90000318816430436
aF8.1554068000078139
aF7.3253780649044664
asg12
I10
sa(dp289
g3
(lp290
F9.4147636545778433
aI2
aI2
aF4.3912106714094437
aF7.1008426082988763
aF3.9015710050907222
aF4.7720565969425719
aF3.5172778018292421
aF7.4116051436338166
aF1.1219975965965743
aF7.9073557769553453
aF1.3996764079795327
asg5
g6
(g8
S'\xa5\xc1KB\xda\x9c\x0b@'
tRp291
sg10
(lp292
F9.7102586183643549
aI0
aI0
aF4.2451507471397223
aF8.8936294245677239
aF2.4890062901023668
aF3.1691404576391293
aF5.5306458401131247
aF7.3595270273360374
aF5.2983436252949385
aF4.6318813920671627
aF8.3947357650380354
asg12
I10
sa(dp293
g3
(lp294
F9.528781150217176
aF2.5579964102103809
aI0
aF4.2977269537718463
aF1.8190876235952107
aF6.6373108009186605
aF4.4977416270349586
aF1.025717364192154
aF5.6280920919819311
aF3.9901982609554727
aF5.2012641612369137
aF0.28174271405630691
asg5
g6
(g8
S'\x84\x83S\x1e\xff\xc1\x1b@'
tRp295
sg10
(lp296
F10.960093849850969
aI2
aI2
aF3.4251071374847126
aF8.1083888786606177
aF2.9815171665235978
aF2.9878838455866257
aF0.34884678171573613
aF5.8092617231245454
aF4.3013838962047997
aF7.3515227013002935
aF2.4482641623826176
asg12
I10
sa(dp297
g3
(lp298
F9.4853313007429918
aF2.6030761828003723
aI2
aF3.4065626341499811
aF6.4274676766481704
aI0
aF2.7072058973781554
aF2.480069101027679
aF2.2320968735154754
aF4.2461041993758464
aF2.009326618548783
aF4.4160186582506826
asg5
g6
(g8
S'46e#H\xf6\x12@'
tRp299
sg10
(lp300
F9.3050158719767548
aI0
aI0
aF2.8130741396052792
aF3.6095536194475444
aF0.19013067016333041
aF1.8714779918483391
aF5.1523488389766285
aF8.1474736085599098
aF4.0861547149628548
aF6.1821736613936631
aF1.9007323623435179
asg12
I10
sa(dp301
g3
(lp302
F10.03007332748698
aI0
aI0
aF4.8333488912084519
aF5.6046045635832513
aF2.8727992054764604
aF2.3512834684463599
aF4.3729898176470732
aF1.9122608024710153
aF3.291156812748242
aF4.6957559613089996
aF0.94915083659542598
asg5
g6
(g8
S'H\xa0F\xc3K}\x04@'
tRp303
sg10
(lp304
F9.7886414132567641
aI2
aI2
aF4.5626747076533194
aF0.24011264028128088
aF3.4647593505958532
aF2.4961803876398618
aF1.3751776065907835
aF8.9480478464265154
aF2.685962837253749
aF5.5854576251787398
aF4.2685097029266084
asg12
I10
sa(dp305
g3
(lp306
F10.133652920865831
aF2.773026102604915
aI1
aF0.35982669362173625
aF5.7980622439012599
aF2.2511375364892769
aF2.1137842091654617
aF7.4138630131316399
aF0.95041820177929903
aI0
aF6.7832613656566636
aF3.2929752258071829
asg5
g6
(g8
S'\xd5Z\xbe7*\x9b\x19@'
tRp307
sg10
(lp308
F9.6403413759838283
aI1
aI1
aF1.5938544815554629
aF6.0071259043913745
aF5.5258246484212927
aF1.2901404458742094
aF1.5624416664331016
aF3.4125398323224543
aF0.78480371541753036
aF6.8663231371778339
aF0.60283007879529371
asg12
I10
sa(dp309
g3
(lp310
F9.3895442839496468
aI0
aI0
aF3.3167269799311847
aF6.6875751149033835
aF8.6158542090625581
aF2.6799956006753023
aF4.4093753978083994
aF4.5201240142645105
aF0.95821237922336866
aF1.9770806605348155
aF2.0263584382915054
asg5
g6
(g8
S'\xc3\xfb\xb8\xff^N\xf9?'
tRp311
sg10
(lp312
F9.4735560261719129
aI2
aI2
aF2.2727721770789042
aF3.8826707026930922
aF7.1545333559768363
aF1.4071650705187964
aF0.084937885344576136
aF3.8320782392143795
aF2.7134677675975505
aF8.0815017355746512
aF8.174706117744968
asg12
I10
sa(dp313
g3
(lp314
F9.5085994863230052
aI1
aI1
aF1.0083770147023954
aF3.9031979112213389
aF6.9665257164227379
aF0.74654011623047523
aF4.5023459509505432
aF2.2481115694038065
aF5.1699594679042233
aF5.1302360650014549
aF5.4483693695006821
asg5
g6
(g8
S'\xcf\xbbS+\x05\n\x14@'
tRp315
sg10
(lp316
F10.233670895998687
aI1
aI1
aF5.0563281567544509
aF5.4227686216799906
aF1.4026615178114699
aF2.7137345299498659
aF8.9787489626885595
aF1.1572809642247177
aF1.0823620266245728
aF5.5042239265352428
aF0.55856879992505881
asg12
I10
sa(dp317
g3
(lp318
F8.8161534818235019
aI2
aI0
aF2.1437644086786989
aF2.6521365237686418
aF1.7027260977106953
aF4.215133140263621
aF5.6361097556843065
aF4.901752118110779
aF4.0462289798446545
aF7.2288362397450667
aF6.9698928426475941
asg5
g6
(g8
S'Ihx\xa0\xb3\xed\x06@'
tRp319
sg10
(lp320
F10.665999522011804
aI2
aI2
aF2.9647583841004645
aF2.2346397861156548
aF1.3598106957200682
aF2.2208527419541739
aF4.7101731065052403
aF8.7815899724402762
aF3.6466713097294536
aF5.0697028404069329
aF2.0358538023241644
asg12
I10
sa(dp321
g3
(lp322
F10.048365795883486
aI0
aI0
aF3.9474970364364337
aF3.7805109197837989
aF8.2593202895199571
aF0.036224179573754289
aF2.1906963004964597
aF2.402724159684047
aF2.4481217136723208
aF2.9525456253215445
aF0.1104813752729159
asg5
g6
(g8
S'\x9a1\x8d\xbf\xcb\x9d\x1b@'
tRp323
sg10
(lp324
F9.6030017281960252
aI0
aI0
aF4.9495364633622341
aF3.5501824356690079
aF1.432210449951866
aF0.58199444590329286
aF1.9028134484892638
aF6.8119663858585122
aF0.51654740199476701
aF5.8374110982760516
aF8.6406939800622506
asg12
I10
sa(dp325
g3
(lp326
F9.6928782406534815
aI1
aI1
aF3.7158444287146022
aF7.2628894389507526
aF1.8913451817741032
aF1.678449030954406
aF4.7499030825359974
aF7.9651623466321464
aF5.6666650000000001
aF5.8298045905394842
aF0.37402568864603447
asg5
g6
(g8
S'k\xf6@@\xf3\xd5\x19@'
tRp327
sg10
(lp328
F9.8930155144117133
aI2
aI2
aF1.5932974385722398
aF6.8682711397584519
aF7.7784564301825334
aF3.4757227194287519
aF3.3906166351039415
aF1.5485253495397659
aF2.1312460783036915
aF2.6647530048678041
aF1.8688540457887122
asg12
I10
sa(dp329
g3
(lp330
F10.141693498186132
aF2.0151910547206562
aI1
aF5.6666650000000001
aF3.7650114838267239
aF0.54571147950774523
aI0
aF3.3339143627132128
aF3.3271993516141696
aF4.9236814492831487
aF1.471835927026022
aF2.6698002789456918
asg5
g6
(g8
S'\x86v)\xa7\xcf\xc9\x1c@'
tRp331
sg10
(lp332
F10.695534438485483
aI1
aI1
aF0.50145444954251972
aF2.8054681962543202
aF1.8798590635729373
aF5.3799053721668457
aF7.9000971517337089
aF1.9113707384419065
aF2.5438562160552363
aF5.6590996795443864
aF4.7060579496979598
asg12
I10
sa(dp333
g3
(lp334
F9.9064116453376734
aI2
aI2
aF2.11554124358697
aF3.9883643869435921
aF1.3253322454197116
aF3.2887195016712916
aF6.210991086652867
aF8.7504492789629751
aF5.6666650000000001
aF3.5878583618317244
aF6.4711197230893305
asg5
g6
(g8
S'\xf4u\xae\x8fJ`\xf7?'
tRp335
sg10
(lp336
F9.7011892977710232
aI2
aI2
aF4.2265879538428281
aF7.5688161009586175
aF7.7875131640455937
aF0.46527715869456038
aF0.41798713820722577
aF4.6828105425915094
aF4.9427196007163641
aF4.40063794286079
aF5.49652310822845
asg12
I10
sa(dp337
g3
(lp338
F8.5034401185849511
aI0
aI0
aF2.1058750554893781
aF5.0024431135809611
aF9
aF4.2216605446767241
aF7.7665158051658549
aF7.3288884070336913
aF0.97694407142872108
aF6.5681008570116424
aF5.5613041547806539
asg5
g6
(g8
S';\xffH\xb7V\xd2\x0f@'
tRp339
sg10
(lp340
F8.9043576256972763
aI0
aI0
aF4.6538449123175791
aF2.1377496305191861
aF7.94004074210154
aF5.3833031494726606
aF7.3737817471041653
aF2.1030609840020187
aF0.97762927725658344
aF2.2545389598265642
aF2.1172823502814815
asg12
I10
sa(dp341
g3
(lp342
F10.336358741029311
aF3.7599147030434095
aI1
aF3.1979958439531817
aF0.92358683107847117
aF2.8134608069036058
aI0
aF4.3665054430327412
aF5.3548988067787109
aF2.4922602830240441
aF0.74242758050028812
aF3.6234446344270022
asg5
g6
(g8
S'p"6\xa3\x8a0\x18@'
tRp343
sg10
(lp344
F10.002806867170095
aI0
aI0
aF2.2514360502614794
aF7.0273557939341655
aF0.4130363470562356
aF0.26954486581504328
aF8.9878935647959697
aF2.0074571520609963
aF4.2344916494724041
aF3.6914588602874665
aF6.0869891600058557
asg12
I10
sa(dp345
g3
(lp346
F9.8667601621003751
aI0
aI0
aF2.0210119022878219
aF4.4055019921343428
aF6.2405265082610963
aF5.6666650000000001
aF5.9511373640883853
aF1.1123944294925003
aF1.7940037839039882
aF2.4744641752896195
aF5.8066380609956285
asg5
g6
(g8
S'L\x13\xc4E\xa5P\x18@'
tRp347
sg10
(lp348
F9.5315761986779872
aI1
aI1
aF4.7491220259796885
aF2.0121398457273747
aF6.3538493602738564
aF2.7853926215077642
aF3.1975692798433792
aF0.33223668145184904
aF1.0764769239823559
aF3.9779748655643687
aF7.012956530566349
asg12
I10
sa(dp349
g3
(lp350
F9.5389430184435593
aI2
aI2
aF0.31648472396681293
aF7.4982784165441716
aF7.7894042192045863
aF1.8222832696766464
aF3.736931591694427
aF2.1323264461107221
aF4.1114177394422571
aF0.25717690016213379
aF7.7690285591348527
asg5
g6
(g8
S'\x82L\x0f\x0b\x13\x91\x1e@'
tRp351
sg10
(lp352
F9.3131968959632214
aI0
aI0
aF3.3784815558199686
aF2.5529543984758449
aF0.51731187216717001
aF3.9854650416667616
aF8.8476587019777924
aF1.4914973771711337
aF1.1092548063813283
aF2.3727421728178473
aF1.1738150331864405
asg12
I10
sa(dp353
g3
(lp354
F11.092981695106163
aI1
aI2
aF2.4734746226774544
aF5.1533586451447508
aF3.9957228302330177
aF2.7965764930668722
aF0.050629473538858272
aF4.6324440887550731
aF4.9884511975277839
aF3.8015434056722097
aF0.6142150283452702
asg5
g6
(g8
S'\xc4;\x1f\xe2m\xfe\x1b@'
tRp355
sg10
(lp356
F9.2027190778884567
aI1
aI1
aF0.15008581379312022
aF3.5625768210022537
aF2.4846159361473008
aF1.1611177744342049
aF2.8679861215956581
aF6.3985487557148728
aF2.3839215533571503
aF8.5061054017798927
aF3.2710657845202564
asg12
I10
sa(dp357
g3
(lp358
F10.168300731916833
aI0
aI2
aF0.85756638474794356
aF4.8546601682941857
aF3.3672679297708652
aF5.6666650000000001
aF0.91560450487681566
aF6.5088389692465967
aF2.0137330971501672
aF1.5084253833052694
aF4.0513985321279335
asg5
g6
(g8
S'\r\xb9\x90P\xe4\xd5\n@'
tRp359
sg10
(lp360
F10.983767300594723
aI0
aI0
aF4.6846552138582185
aF1.2472701929860848
aF6.0639184899270253
aF4.4157779690629333
aF2.0957898766203225
aF5.4451605416668318
aF0.96466284683795944
aF8.3106861656045758
aF3.0450657279462812
asg12
I10
sa(dp361
g3
(lp362
F10.843491180043626
aF1.7417752986923509
aI0
aF5.57461778705364
aF7.7492273856364982
aF5.5848416601696389
aF1.9720853748360254
aF5.1737855754636488
aF0.26859396582564687
aF5.1389625362141711
aF5.6086678359196567
aF8.2310500177909667
asg5
g6
(g8
S'\x88P\xa0\xcc\x0fU\x11@'
tRp363
sg10
(lp364
F10.294077531385319
aI0
aI0
aF3.1204816610536916
aF6.4366280315215061
aF2.263730729322833
aF3.8098374987608743
aF2.7637524974703247
aF7.3374532729667594
aF5.3786490408844463
aF2.3783797513056335
aF5.239643590391128
asg12
I10
sa(dp365
g3
(lp366
F9.7201554674198132
aI1
aI2
aF3.8748413879423533
aF1.8272744919089421
aF9
aF4.3337821048812604
aF0.93157218036507228
aF6.6131809290743755
aF4.1369429097311183
aF1.5991640897334027
aF0.70159222632206664
asg5
g6
(g8
S'\xe9#_\xd0j\xfc\x1a@'
tRp367
sg10
(lp368
F11.25585467902161
aI2
aI2
aF2.3368436745385162
aF8.5517024026478303
aF1.7814519213580535
aF4.9508360469703199
aF1.922667702849699
aF1.6348438984438065
aF3.5264078391739959
aF7.6307048888251492
aF3.6618356507775713
asg12
I10
sa(dp369
g3
(lp370
F9.3774553902954203
aI1
aI1
aF0.59124019170415187
aF6.2272664311422021
aF3.5957513310359039
aF4.5239099933471785
aF4.4824123456023397
aF3.0123496799191765
aF4.1769888037192215
aF5.9005809793641895
aF7.7565065767013897
asg5
g6
(g8
S'\xdfN\xd5\xca\x98\xc9\x17@'
tRp371
sg10
(lp372
F9.7928315761499523
aI1
aI1
aF4.7516194564644323
aF7.9081125886560804
aF2.5931273880138144
aF0.16510026050327523
aF0.43832111439453647
aF3.1190710308863823
aF0.067746731978267388
aF4.5352442596639406
aF0.17526789388626574
asg12
I10
sa(dp373
g3
(lp374
F9.4143222754370388
aI0
aI1
aF3.3893088349436007
aF0.41963533520611418
aF1.6766733353622094
aF2.6596835995086221
aI0
aF3.7869858089129069
aF3.5176916331557413
aF1.7073740359201404
aF2.925100209204671
asg5
g6
(g8
S'\x90|\xff\x8fso\x1b@'
tRp375
sg10
(lp376
F8.6831476956393558
aI0
aI0
aF1.9715977602296642
aF5.5788803466699752
aF7.7171649567344511
aF0.62948438435362164
aF4.8142288190439446
aF7.3672638910416097
aF1.1289872362882947
aF8.7427317595291356
aF7.8503861030437632
asg12
I10
sa(dp377
g3
(lp378
F9.7278111525293287
aI1
aI1
aF3.9790635469913322
aF7.2134968760473201
aF9
aF5.2271334871369097
aF5.5745936372038978
aF8.7307534558949627
aI0
aF8.8130296201526122
aF8.6542033319927381
asg5
g6
(g8
S'y\xd0~1\xce2\x14@'
tRp379
sg10
(lp380
F8.4845694843200636
aI0
aI0
aF1.5166950242460835
aF6.1007614426771042
aF5.3463181451205211
aF1.8578945541834533
aF2.9463424460623653
aF5.30432801971941
aF4.9379867188118567
aF0.55954634821186777
aF0.51893359111985082
asg12
I10
sa(dp381
g3
(lp382
F9.9982855912683561
aI2
aI2
aF3.9374189117982277
aF4.6138417860377849
aF2.041022718762179
aF4.3232712753281088
aF2.1191771928171983
aF2.3745335188912051
aF5.6666650000000001
aF8.0188015489183844
aF7.6837769395830238
asg5
g6
(g8
S'\x04\xd5\xe2\xa2_\xb7\x0e@'
tRp383
sg10
(lp384
F10.502365036140082
aI0
aI0
aF2.0407545756097711
aF8.5134857424299923
aF6.5218336197432469
aF4.7789312094533827
aF3.523620556240826
aF1.2058212390870349
aF3.1778792869681487
aF6.5963897814868613
aF3.2248493715390145
asg12
I10
sa(dp385
g3
(lp386
F11.462961947241586
aF3.4456910651155064
aI1
aF5.6255767765940821
aF4.4970747360303225
aF1.2348302867557013
aF4.6708610056201536
aF7.6315182080545849
aF1.6664146936742272
aF3.0279188861724933
aF8.1060921280883953
aF7.6419125583837895
asg5
g6
(g8
S'\xa9X\xf6\x7fz^\x18@'
tRp387
sg10
(lp388
F10.821451260959661
aI2
aI2
aF1.6210118765640007
aF4.9691083960883056
aF5.9802114216072715
aF2.7323240746420971
aF0.55306243630667851
aF8.354053948965424
aF3.8321013456577271
aF3.3974405815426083
aF5.9658043784654531
asg12
I10
sa(dp389
g3
(lp390
F10.771381007925461
aI1
aI0
aF5.1061042674850707
aF4.9602392632448566
aF3.7581658192529295
aF0.92188681605021683
aF5.2984011402113103
aF3.8353526308623653
aF3.2693507618676834
aF3.3691333391098564
aF5.3419846443188588
asg5
g6
(g8
S'\xcc\xb7\xf5\xe7\xbdf\x14@'
tRp391
sg10
(lp392
F9.939018571827944
aI2
aI2
aF4.0792002266166323
aF8.4730785180517767
aF2.6141330202361805
aF3.8429122395175166
aF7.2892997978070326
aF8.8010723287089139
aF0.9109554266420069
aF5.2920629848216718
aF6.6398362006103318
asg12
I10
sa(dp393
g3
(lp394
F11.023331226247738
aI1
aI1
aF2.0038385736373838
aF5.7349171628256101
aF5.2776558155054989
aF4.0163968216535846
aF4.5424019558564321
aF1.4657072367619346
aF2.8772751780502106
aF3.2331347810706283
aF3.3523945750551194
asg5
g6
(g8
S'\xa4\xf4\xa3\x10"\xde\x1b@'
tRp395
sg10
(lp396
F10.192738120786405
aI2
aI2
aF2.7015208622167939
aF4.8552770441455504
aF7.9475471924676384
aF3.8235809969732779
aF5.0641809409809451
aF8.9413517962588855
aF0.237976598221427
aF8.4302096900476418
aF5.84138558297842
asg12
I10
sa(dp397
g3
(lp398
F8.3224932665039582
aF3.9289222889762812
aI1
aF3.687761679653522
aF3.5760673110558381
aF3.0184265966712704
aF1.5886004182093161
aF7.2473803567746504
aF9
aF2.1154457319240807
aF3.6347972933635733
aF2.4843579227592811
asg5
g6
(g8
S'ZU\x07\x8bld\r@'
tRp399
sg10
(lp400
F7.1366621326083575
aI1
aI1
aF2.7498519354210655
aF2.7880703995164198
aF5.7133754922420197
aF4.1444738909632077
aF4.6096997517174643
aF8.906800571600094
aF0.56219044207634039
aF3.9564586921865517
aF4.0671330406633581
asg12
I10
sa(dp401
g3
(lp402
F11.040668090656085
aI2
aI2
aF1.1279680406239252
aF6.7297720025051415
aF6.3225142702182122
aF2.2591252754738385
aF1.8539153944075377
aF2.0705701764706843
aF3.4624060070620386
aF3.9008356822154946
aF7.4076124496881581
asg5
g6
(g8
S'f\xe1\x01&\xcc\xed\x12@'
tRp403
sg10
(lp404
F10.394272384545145
aI1
aI1
aF5.3317523835689284
aF1.3181852282073496
aF7.0556883605543979
aF4.9103761189952992
aF3.3576960487925285
aF2.935216379414634
aF2.4341096097906023
aF5.9532606515344462
aF8.3623831819328522
asg12
I10
sa(dp405
g3
(lp406
F9.395302849882647
aI0
aI0
aF1.0305397460313876
aF1.6365647060773929
aF6.1797926298084924
aF3.3528652083749186
aF4.1183622417948893
aF8.5657149088688271
aF0.52224755825468683
aF1.3870097792163045
aF4.723149314165628
asg5
g6
(g8
S'0\xed\xb89\xb6C @'
tRp407
sg10
(lp408
F11.723881223680642
aI2
aI2
aF1.881959923940832
aF4.5302668845277685
aF0.88543360539436033
aF4.1327894686414224
aF6.3517800825646713
aF2.1550932109713865
aF1.7104859435626008
aF8.4279382012627284
aF1.7584349755327859
asg12
I10
sa.